
main.elf:     file format elf32-littleriscv


Disassembly of section .text:

00000000 <_isr_handler>:
       0:	0080006f          	j	8 <_isr_routine>
       4:	1440006f          	j	148 <_start>

00000008 <_isr_routine>:
       8:	f8010113          	addi	sp,sp,-128
       c:	00112023          	sw	ra,0(sp)
      10:	00312423          	sw	gp,8(sp)
      14:	00412623          	sw	tp,12(sp)
      18:	00512823          	sw	t0,16(sp)
      1c:	00612a23          	sw	t1,20(sp)
      20:	00712c23          	sw	t2,24(sp)
      24:	00812e23          	sw	s0,28(sp)
      28:	02912023          	sw	s1,32(sp)
      2c:	02a12223          	sw	a0,36(sp)
      30:	02b12423          	sw	a1,40(sp)
      34:	02c12623          	sw	a2,44(sp)
      38:	02d12823          	sw	a3,48(sp)
      3c:	02e12a23          	sw	a4,52(sp)
      40:	02f12c23          	sw	a5,56(sp)
      44:	03012e23          	sw	a6,60(sp)
      48:	05112023          	sw	a7,64(sp)
      4c:	05212223          	sw	s2,68(sp)
      50:	05312423          	sw	s3,72(sp)
      54:	05412623          	sw	s4,76(sp)
      58:	05512823          	sw	s5,80(sp)
      5c:	05612a23          	sw	s6,84(sp)
      60:	05712c23          	sw	s7,88(sp)
      64:	05812e23          	sw	s8,92(sp)
      68:	07912023          	sw	s9,96(sp)
      6c:	07a12223          	sw	s10,100(sp)
      70:	07b12423          	sw	s11,104(sp)
      74:	07c12623          	sw	t3,108(sp)
      78:	07d12823          	sw	t4,112(sp)
      7c:	07e12a23          	sw	t5,116(sp)
      80:	07f12c23          	sw	t6,120(sp)
      84:	342022f3          	csrr	t0,mcause
      88:	80000337          	lui	t1,0x80000
      8c:	02536463          	bltu	t1,t0,b4 <external_irq>
      90:	00028833          	add	a6,t0,zero
      94:	00b00313          	li	t1,11
      98:	00628463          	beq	t0,t1,a0 <skip_init_args>
      9c:	34102573          	csrr	a0,mepc

000000a0 <skip_init_args>:
      a0:	2ec000ef          	jal	38c <handle_exception>
      a4:	341022f3          	csrr	t0,mepc
      a8:	00428293          	addi	t0,t0,4
      ac:	34129073          	csrw	mepc,t0
      b0:	0180006f          	j	c8 <restore>

000000b4 <external_irq>:
      b4:	800002b7          	lui	t0,0x80000
      b8:	fff28293          	addi	t0,t0,-1 # 7fffffff <_stack_end+0x7fefd907>
      bc:	34202373          	csrr	t1,mcause
      c0:	0062f533          	and	a0,t0,t1
      c4:	7f4000ef          	jal	8b8 <handle_interrupt>

000000c8 <restore>:
      c8:	00012083          	lw	ra,0(sp)
      cc:	00812183          	lw	gp,8(sp)
      d0:	00c12203          	lw	tp,12(sp)
      d4:	01012283          	lw	t0,16(sp)
      d8:	01412303          	lw	t1,20(sp)
      dc:	01812383          	lw	t2,24(sp)
      e0:	01c12403          	lw	s0,28(sp)
      e4:	02012483          	lw	s1,32(sp)
      e8:	02412503          	lw	a0,36(sp)
      ec:	02812583          	lw	a1,40(sp)
      f0:	02c12603          	lw	a2,44(sp)
      f4:	03012683          	lw	a3,48(sp)
      f8:	03412703          	lw	a4,52(sp)
      fc:	03812783          	lw	a5,56(sp)
     100:	03c12803          	lw	a6,60(sp)
     104:	04012883          	lw	a7,64(sp)
     108:	04412903          	lw	s2,68(sp)
     10c:	04812983          	lw	s3,72(sp)
     110:	04c12a03          	lw	s4,76(sp)
     114:	05012a83          	lw	s5,80(sp)
     118:	05412b03          	lw	s6,84(sp)
     11c:	05812b83          	lw	s7,88(sp)
     120:	05c12c03          	lw	s8,92(sp)
     124:	06012c83          	lw	s9,96(sp)
     128:	06412d03          	lw	s10,100(sp)
     12c:	06812d83          	lw	s11,104(sp)
     130:	06c12e03          	lw	t3,108(sp)
     134:	07012e83          	lw	t4,112(sp)
     138:	07412f03          	lw	t5,116(sp)
     13c:	07812f83          	lw	t6,120(sp)
     140:	08010113          	addi	sp,sp,128
     144:	30200073          	mret

00000148 <_start>:
     148:	00102117          	auipc	sp,0x102
     14c:	5b010113          	addi	sp,sp,1456 # 1026f8 <_stack_end>
     150:	00003197          	auipc	gp,0x3
     154:	a4918193          	addi	gp,gp,-1463 # 2b99 <__global_pointer>
     158:	00002517          	auipc	a0,0x2
     15c:	18c50513          	addi	a0,a0,396 # 22e4 <welcome_msg>
     160:	00400893          	li	a7,4
     164:	00000073          	ecall
     168:	255010ef          	jal	1bbc <main>

0000016c <loop>:
     16c:	0000006f          	j	16c <loop>

00000170 <enable_interrupt>:
     170:	30486073          	csrsi	mie,16
     174:	3048e073          	csrsi	mie,17
     178:	30496073          	csrsi	mie,18
     17c:	3001e073          	csrsi	mstatus,3
     180:	00008067          	ret

00000184 <printc>:
     184:	fe010113          	addi	sp,sp,-32
     188:	00812e23          	sw	s0,28(sp)
     18c:	02010413          	addi	s0,sp,32
     190:	00050793          	mv	a5,a0
     194:	fef407a3          	sb	a5,-17(s0)
     198:	00000013          	nop
     19c:	040007b7          	lui	a5,0x4000
     1a0:	04478793          	addi	a5,a5,68 # 4000044 <_stack_end+0x3efd94c>
     1a4:	0007a703          	lw	a4,0(a5)
     1a8:	000107b7          	lui	a5,0x10
     1ac:	fef768e3          	bltu	a4,a5,19c <printc+0x18>
     1b0:	040007b7          	lui	a5,0x4000
     1b4:	04078793          	addi	a5,a5,64 # 4000040 <_stack_end+0x3efd948>
     1b8:	fef44703          	lbu	a4,-17(s0)
     1bc:	00e7a023          	sw	a4,0(a5)
     1c0:	00000013          	nop
     1c4:	01c12403          	lw	s0,28(sp)
     1c8:	02010113          	addi	sp,sp,32
     1cc:	00008067          	ret

000001d0 <print>:
     1d0:	fe010113          	addi	sp,sp,-32
     1d4:	00112e23          	sw	ra,28(sp)
     1d8:	00812c23          	sw	s0,24(sp)
     1dc:	02010413          	addi	s0,sp,32
     1e0:	fea42623          	sw	a0,-20(s0)
     1e4:	0200006f          	j	204 <print+0x34>
     1e8:	fec42783          	lw	a5,-20(s0)
     1ec:	0007c783          	lbu	a5,0(a5)
     1f0:	00078513          	mv	a0,a5
     1f4:	f91ff0ef          	jal	184 <printc>
     1f8:	fec42783          	lw	a5,-20(s0)
     1fc:	00178793          	addi	a5,a5,1
     200:	fef42623          	sw	a5,-20(s0)
     204:	fec42783          	lw	a5,-20(s0)
     208:	0007c783          	lbu	a5,0(a5)
     20c:	fc079ee3          	bnez	a5,1e8 <print+0x18>
     210:	00000013          	nop
     214:	00000013          	nop
     218:	01c12083          	lw	ra,28(sp)
     21c:	01812403          	lw	s0,24(sp)
     220:	02010113          	addi	sp,sp,32
     224:	00008067          	ret

00000228 <print_dec>:
     228:	fd010113          	addi	sp,sp,-48
     22c:	02112623          	sw	ra,44(sp)
     230:	02812423          	sw	s0,40(sp)
     234:	03010413          	addi	s0,sp,48
     238:	fca42e23          	sw	a0,-36(s0)
     23c:	3b9ad7b7          	lui	a5,0x3b9ad
     240:	a0078793          	addi	a5,a5,-1536 # 3b9aca00 <_stack_end+0x3b8aa308>
     244:	fef42623          	sw	a5,-20(s0)
     248:	fe0405a3          	sb	zero,-21(s0)
     24c:	fdc42703          	lw	a4,-36(s0)
     250:	fec42783          	lw	a5,-20(s0)
     254:	02f757b3          	divu	a5,a4,a5
     258:	fef42223          	sw	a5,-28(s0)
     25c:	fe442783          	lw	a5,-28(s0)
     260:	00078663          	beqz	a5,26c <print_dec+0x44>
     264:	00100793          	li	a5,1
     268:	fef405a3          	sb	a5,-21(s0)
     26c:	feb44783          	lbu	a5,-21(s0)
     270:	00078e63          	beqz	a5,28c <print_dec+0x64>
     274:	fe442783          	lw	a5,-28(s0)
     278:	0ff7f793          	zext.b	a5,a5
     27c:	03078793          	addi	a5,a5,48
     280:	0ff7f793          	zext.b	a5,a5
     284:	00078513          	mv	a0,a5
     288:	efdff0ef          	jal	184 <printc>
     28c:	fe442703          	lw	a4,-28(s0)
     290:	fec42783          	lw	a5,-20(s0)
     294:	02f707b3          	mul	a5,a4,a5
     298:	fdc42703          	lw	a4,-36(s0)
     29c:	40f707b3          	sub	a5,a4,a5
     2a0:	fcf42e23          	sw	a5,-36(s0)
     2a4:	fec42703          	lw	a4,-20(s0)
     2a8:	00a00793          	li	a5,10
     2ac:	02f757b3          	divu	a5,a4,a5
     2b0:	fef42623          	sw	a5,-20(s0)
     2b4:	fec42783          	lw	a5,-20(s0)
     2b8:	f8079ae3          	bnez	a5,24c <print_dec+0x24>
     2bc:	feb44783          	lbu	a5,-21(s0)
     2c0:	00079663          	bnez	a5,2cc <print_dec+0xa4>
     2c4:	03000513          	li	a0,48
     2c8:	ebdff0ef          	jal	184 <printc>
     2cc:	00000013          	nop
     2d0:	02c12083          	lw	ra,44(sp)
     2d4:	02812403          	lw	s0,40(sp)
     2d8:	03010113          	addi	sp,sp,48
     2dc:	00008067          	ret

000002e0 <print_hex32>:
     2e0:	fd010113          	addi	sp,sp,-48
     2e4:	02112623          	sw	ra,44(sp)
     2e8:	02812423          	sw	s0,40(sp)
     2ec:	03010413          	addi	s0,sp,48
     2f0:	fca42e23          	sw	a0,-36(s0)
     2f4:	03000513          	li	a0,48
     2f8:	e8dff0ef          	jal	184 <printc>
     2fc:	07800513          	li	a0,120
     300:	e85ff0ef          	jal	184 <printc>
     304:	00700793          	li	a5,7
     308:	fef42623          	sw	a5,-20(s0)
     30c:	0600006f          	j	36c <print_hex32+0x8c>
     310:	fec42783          	lw	a5,-20(s0)
     314:	00279793          	slli	a5,a5,0x2
     318:	fdc42703          	lw	a4,-36(s0)
     31c:	00f757b3          	srl	a5,a4,a5
     320:	0ff7f793          	zext.b	a5,a5
     324:	00f7f793          	andi	a5,a5,15
     328:	fef405a3          	sb	a5,-21(s0)
     32c:	feb44703          	lbu	a4,-21(s0)
     330:	00900793          	li	a5,9
     334:	00e7ea63          	bltu	a5,a4,348 <print_hex32+0x68>
     338:	feb44783          	lbu	a5,-21(s0)
     33c:	03078793          	addi	a5,a5,48
     340:	fef405a3          	sb	a5,-21(s0)
     344:	0100006f          	j	354 <print_hex32+0x74>
     348:	feb44783          	lbu	a5,-21(s0)
     34c:	03778793          	addi	a5,a5,55
     350:	fef405a3          	sb	a5,-21(s0)
     354:	feb44783          	lbu	a5,-21(s0)
     358:	00078513          	mv	a0,a5
     35c:	e29ff0ef          	jal	184 <printc>
     360:	fec42783          	lw	a5,-20(s0)
     364:	fff78793          	addi	a5,a5,-1
     368:	fef42623          	sw	a5,-20(s0)
     36c:	fec42783          	lw	a5,-20(s0)
     370:	fa07d0e3          	bgez	a5,310 <print_hex32+0x30>
     374:	00000013          	nop
     378:	00000013          	nop
     37c:	02c12083          	lw	ra,44(sp)
     380:	02812403          	lw	s0,40(sp)
     384:	03010113          	addi	sp,sp,48
     388:	00008067          	ret

0000038c <handle_exception>:
     38c:	fd010113          	addi	sp,sp,-48
     390:	02112623          	sw	ra,44(sp)
     394:	02812423          	sw	s0,40(sp)
     398:	03010413          	addi	s0,sp,48
     39c:	fea42623          	sw	a0,-20(s0)
     3a0:	feb42423          	sw	a1,-24(s0)
     3a4:	fec42223          	sw	a2,-28(s0)
     3a8:	fed42023          	sw	a3,-32(s0)
     3ac:	fce42e23          	sw	a4,-36(s0)
     3b0:	fcf42c23          	sw	a5,-40(s0)
     3b4:	fd042a23          	sw	a6,-44(s0)
     3b8:	fd142823          	sw	a7,-48(s0)
     3bc:	fd442703          	lw	a4,-44(s0)
     3c0:	00b00793          	li	a5,11
     3c4:	04f70463          	beq	a4,a5,40c <handle_exception+0x80>
     3c8:	fd442703          	lw	a4,-44(s0)
     3cc:	00b00793          	li	a5,11
     3d0:	06e7ea63          	bltu	a5,a4,444 <handle_exception+0xb8>
     3d4:	fd442783          	lw	a5,-44(s0)
     3d8:	00078a63          	beqz	a5,3ec <handle_exception+0x60>
     3dc:	fd442703          	lw	a4,-44(s0)
     3e0:	00200793          	li	a5,2
     3e4:	00f70c63          	beq	a4,a5,3fc <handle_exception+0x70>
     3e8:	05c0006f          	j	444 <handle_exception+0xb8>
     3ec:	000027b7          	lui	a5,0x2
     3f0:	3e078513          	addi	a0,a5,992 # 23e0 <proceed_val+0x8>
     3f4:	dddff0ef          	jal	1d0 <print>
     3f8:	05c0006f          	j	454 <handle_exception+0xc8>
     3fc:	000027b7          	lui	a5,0x2
     400:	41078513          	addi	a0,a5,1040 # 2410 <proceed_val+0x38>
     404:	dcdff0ef          	jal	1d0 <print>
     408:	04c0006f          	j	454 <handle_exception+0xc8>
     40c:	fd042703          	lw	a4,-48(s0)
     410:	00400793          	li	a5,4
     414:	00f71863          	bne	a4,a5,424 <handle_exception+0x98>
     418:	fec42783          	lw	a5,-20(s0)
     41c:	00078513          	mv	a0,a5
     420:	db1ff0ef          	jal	1d0 <print>
     424:	fd042703          	lw	a4,-48(s0)
     428:	00b00793          	li	a5,11
     42c:	04f71663          	bne	a4,a5,478 <handle_exception+0xec>
     430:	fec42783          	lw	a5,-20(s0)
     434:	0ff7f793          	zext.b	a5,a5
     438:	00078513          	mv	a0,a5
     43c:	d49ff0ef          	jal	184 <printc>
     440:	0380006f          	j	478 <handle_exception+0xec>
     444:	000027b7          	lui	a5,0x2
     448:	43478513          	addi	a0,a5,1076 # 2434 <proceed_val+0x5c>
     44c:	d85ff0ef          	jal	1d0 <print>
     450:	00000013          	nop
     454:	000027b7          	lui	a5,0x2
     458:	45478513          	addi	a0,a5,1108 # 2454 <proceed_val+0x7c>
     45c:	d75ff0ef          	jal	1d0 <print>
     460:	fec42503          	lw	a0,-20(s0)
     464:	e7dff0ef          	jal	2e0 <print_hex32>
     468:	00a00513          	li	a0,10
     46c:	d19ff0ef          	jal	184 <printc>
     470:	00000013          	nop
     474:	ffdff06f          	j	470 <handle_exception+0xe4>
     478:	00000013          	nop
     47c:	02c12083          	lw	ra,44(sp)
     480:	02812403          	lw	s0,40(sp)
     484:	03010113          	addi	sp,sp,48
     488:	00008067          	ret

0000048c <nextprime>:
     48c:	fe010113          	addi	sp,sp,-32
     490:	00812e23          	sw	s0,28(sp)
     494:	00912c23          	sw	s1,24(sp)
     498:	01212a23          	sw	s2,20(sp)
     49c:	01312823          	sw	s3,16(sp)
     4a0:	02010413          	addi	s0,sp,32
     4a4:	fea42623          	sw	a0,-20(s0)
     4a8:	00000493          	li	s1,0
     4ac:	fec42703          	lw	a4,-20(s0)
     4b0:	00200793          	li	a5,2
     4b4:	02e7ce63          	blt	a5,a4,4f0 <nextprime+0x64>
     4b8:	fec42783          	lw	a5,-20(s0)
     4bc:	00f04663          	bgtz	a5,4c8 <nextprime+0x3c>
     4c0:	00100793          	li	a5,1
     4c4:	0900006f          	j	554 <nextprime+0xc8>
     4c8:	fec42703          	lw	a4,-20(s0)
     4cc:	00100793          	li	a5,1
     4d0:	00f71663          	bne	a4,a5,4dc <nextprime+0x50>
     4d4:	00200793          	li	a5,2
     4d8:	07c0006f          	j	554 <nextprime+0xc8>
     4dc:	fec42703          	lw	a4,-20(s0)
     4e0:	00200793          	li	a5,2
     4e4:	00f71c63          	bne	a4,a5,4fc <nextprime+0x70>
     4e8:	00300793          	li	a5,3
     4ec:	0680006f          	j	554 <nextprime+0xc8>
     4f0:	fec42783          	lw	a5,-20(s0)
     4f4:	00178793          	addi	a5,a5,1
     4f8:	0017e493          	ori	s1,a5,1
     4fc:	00000993          	li	s3,0
     500:	0480006f          	j	548 <nextprime+0xbc>
     504:	00300913          	li	s2,3
     508:	01c0006f          	j	524 <nextprime+0x98>
     50c:	00100993          	li	s3,1
     510:	0324e7b3          	rem	a5,s1,s2
     514:	00079663          	bnez	a5,520 <nextprime+0x94>
     518:	00000993          	li	s3,0
     51c:	0180006f          	j	534 <nextprime+0xa8>
     520:	00190913          	addi	s2,s2,1
     524:	4014d793          	srai	a5,s1,0x1
     528:	00178793          	addi	a5,a5,1
     52c:	ff27d0e3          	bge	a5,s2,50c <nextprime+0x80>
     530:	00000013          	nop
     534:	00100793          	li	a5,1
     538:	00f99663          	bne	s3,a5,544 <nextprime+0xb8>
     53c:	00048793          	mv	a5,s1
     540:	0140006f          	j	554 <nextprime+0xc8>
     544:	00248493          	addi	s1,s1,2
     548:	00100793          	li	a5,1
     54c:	faf99ce3          	bne	s3,a5,504 <nextprime+0x78>
     550:	00048793          	mv	a5,s1
     554:	00078513          	mv	a0,a5
     558:	01c12403          	lw	s0,28(sp)
     55c:	01812483          	lw	s1,24(sp)
     560:	01412903          	lw	s2,20(sp)
     564:	01012983          	lw	s3,16(sp)
     568:	02010113          	addi	sp,sp,32
     56c:	00008067          	ret

00000570 <setup_pipes>:
     570:	fd010113          	addi	sp,sp,-48
     574:	02812623          	sw	s0,44(sp)
     578:	03010413          	addi	s0,sp,48
     57c:	fca42e23          	sw	a0,-36(s0)
     580:	fe042623          	sw	zero,-20(s0)
     584:	07c0006f          	j	600 <setup_pipes+0x90>
     588:	000027b7          	lui	a5,0x2
     58c:	3c87a703          	lw	a4,968(a5) # 23c8 <timeoutcount>
     590:	fec42783          	lw	a5,-20(s0)
     594:	00f70733          	add	a4,a4,a5
     598:	00070793          	mv	a5,a4
     59c:	00379793          	slli	a5,a5,0x3
     5a0:	40e78733          	sub	a4,a5,a4
     5a4:	000037b7          	lui	a5,0x3
     5a8:	b6778793          	addi	a5,a5,-1177 # 2b67 <JUMP_TIME+0x473>
     5ac:	00f70733          	add	a4,a4,a5
     5b0:	fec42783          	lw	a5,-20(s0)
     5b4:	00178693          	addi	a3,a5,1
     5b8:	01700793          	li	a5,23
     5bc:	02f6e7b3          	rem	a5,a3,a5
     5c0:	02f74733          	div	a4,a4,a5
     5c4:	0c800693          	li	a3,200
     5c8:	03200793          	li	a5,50
     5cc:	00179793          	slli	a5,a5,0x1
     5d0:	40f687b3          	sub	a5,a3,a5
     5d4:	02f76733          	rem	a4,a4,a5
     5d8:	03200793          	li	a5,50
     5dc:	00f70733          	add	a4,a4,a5
     5e0:	fdc42683          	lw	a3,-36(s0)
     5e4:	fec42783          	lw	a5,-20(s0)
     5e8:	00279793          	slli	a5,a5,0x2
     5ec:	00f687b3          	add	a5,a3,a5
     5f0:	00e7a023          	sw	a4,0(a5)
     5f4:	fec42783          	lw	a5,-20(s0)
     5f8:	00178793          	addi	a5,a5,1
     5fc:	fef42623          	sw	a5,-20(s0)
     600:	fec42703          	lw	a4,-20(s0)
     604:	3e700793          	li	a5,999
     608:	f8e7d0e3          	bge	a5,a4,588 <setup_pipes+0x18>
     60c:	00000013          	nop
     610:	00000013          	nop
     614:	02c12403          	lw	s0,44(sp)
     618:	03010113          	addi	sp,sp,48
     61c:	00008067          	ret

00000620 <setup_bg_ground>:
     620:	fe010113          	addi	sp,sp,-32
     624:	00812e23          	sw	s0,28(sp)
     628:	02010413          	addi	s0,sp,32
     62c:	fe042623          	sw	zero,-20(s0)
     630:	0700006f          	j	6a0 <setup_bg_ground+0x80>
     634:	14000713          	li	a4,320
     638:	0c800793          	li	a5,200
     63c:	02f707b3          	mul	a5,a4,a5
     640:	fef42423          	sw	a5,-24(s0)
     644:	0400006f          	j	684 <setup_bg_ground+0x64>
     648:	000027b7          	lui	a5,0x2
     64c:	39c7a703          	lw	a4,924(a5) # 239c <VGA>
     650:	000137b7          	lui	a5,0x13
     654:	c0078693          	addi	a3,a5,-1024 # 12c00 <__global_pointer+0x10067>
     658:	fec42783          	lw	a5,-20(s0)
     65c:	02f687b3          	mul	a5,a3,a5
     660:	00078693          	mv	a3,a5
     664:	fe842783          	lw	a5,-24(s0)
     668:	00f687b3          	add	a5,a3,a5
     66c:	00f707b3          	add	a5,a4,a5
     670:	01400713          	li	a4,20
     674:	00e78023          	sb	a4,0(a5)
     678:	fe842783          	lw	a5,-24(s0)
     67c:	00178793          	addi	a5,a5,1
     680:	fef42423          	sw	a5,-24(s0)
     684:	000137b7          	lui	a5,0x13
     688:	c0078793          	addi	a5,a5,-1024 # 12c00 <__global_pointer+0x10067>
     68c:	fe842703          	lw	a4,-24(s0)
     690:	faf74ce3          	blt	a4,a5,648 <setup_bg_ground+0x28>
     694:	fec42783          	lw	a5,-20(s0)
     698:	00178793          	addi	a5,a5,1
     69c:	fef42623          	sw	a5,-20(s0)
     6a0:	fec42703          	lw	a4,-20(s0)
     6a4:	00100793          	li	a5,1
     6a8:	f8e7d6e3          	bge	a5,a4,634 <setup_bg_ground+0x14>
     6ac:	00000013          	nop
     6b0:	00000013          	nop
     6b4:	01c12403          	lw	s0,28(sp)
     6b8:	02010113          	addi	sp,sp,32
     6bc:	00008067          	ret

000006c0 <set_displays>:
     6c0:	fc010113          	addi	sp,sp,-64
     6c4:	02812e23          	sw	s0,60(sp)
     6c8:	04010413          	addi	s0,sp,64
     6cc:	fca42623          	sw	a0,-52(s0)
     6d0:	fcb42423          	sw	a1,-56(s0)
     6d4:	fcc42223          	sw	a2,-60(s0)
     6d8:	000027b7          	lui	a5,0x2
     6dc:	46878793          	addi	a5,a5,1128 # 2468 <proceed_val+0x90>
     6e0:	0007a683          	lw	a3,0(a5)
     6e4:	0047a703          	lw	a4,4(a5)
     6e8:	fcd42e23          	sw	a3,-36(s0)
     6ec:	fee42023          	sw	a4,-32(s0)
     6f0:	0087d703          	lhu	a4,8(a5)
     6f4:	fee41223          	sh	a4,-28(s0)
     6f8:	00a7c783          	lbu	a5,10(a5)
     6fc:	fef40323          	sb	a5,-26(s0)
     700:	000027b7          	lui	a5,0x2
     704:	3a87a783          	lw	a5,936(a5) # 23a8 <display_ptr>
     708:	fcc42703          	lw	a4,-52(s0)
     70c:	00471713          	slli	a4,a4,0x4
     710:	00e787b3          	add	a5,a5,a4
     714:	fef42423          	sw	a5,-24(s0)
     718:	fc842783          	lw	a5,-56(s0)
     71c:	ff078793          	addi	a5,a5,-16
     720:	008787b3          	add	a5,a5,s0
     724:	fec7c783          	lbu	a5,-20(a5)
     728:	fef42623          	sw	a5,-20(s0)
     72c:	fc442783          	lw	a5,-60(s0)
     730:	00078863          	beqz	a5,740 <set_displays+0x80>
     734:	fec42783          	lw	a5,-20(s0)
     738:	f8078793          	addi	a5,a5,-128
     73c:	fef42623          	sw	a5,-20(s0)
     740:	fec42783          	lw	a5,-20(s0)
     744:	0ff7f713          	zext.b	a4,a5
     748:	fe842783          	lw	a5,-24(s0)
     74c:	00e78023          	sb	a4,0(a5)
     750:	00000013          	nop
     754:	03c12403          	lw	s0,60(sp)
     758:	04010113          	addi	sp,sp,64
     75c:	00008067          	ret

00000760 <setup_7seg_displays>:
     760:	fe010113          	addi	sp,sp,-32
     764:	00112e23          	sw	ra,28(sp)
     768:	00812c23          	sw	s0,24(sp)
     76c:	02010413          	addi	s0,sp,32
     770:	fe042623          	sw	zero,-20(s0)
     774:	0200006f          	j	794 <setup_7seg_displays+0x34>
     778:	00000613          	li	a2,0
     77c:	00a00593          	li	a1,10
     780:	fec42503          	lw	a0,-20(s0)
     784:	f3dff0ef          	jal	6c0 <set_displays>
     788:	fec42783          	lw	a5,-20(s0)
     78c:	00178793          	addi	a5,a5,1
     790:	fef42623          	sw	a5,-20(s0)
     794:	fec42703          	lw	a4,-20(s0)
     798:	00500793          	li	a5,5
     79c:	fce7dee3          	bge	a5,a4,778 <setup_7seg_displays+0x18>
     7a0:	00000013          	nop
     7a4:	00000013          	nop
     7a8:	01c12083          	lw	ra,28(sp)
     7ac:	01812403          	lw	s0,24(sp)
     7b0:	02010113          	addi	sp,sp,32
     7b4:	00008067          	ret

000007b8 <set_score>:
     7b8:	fd010113          	addi	sp,sp,-48
     7bc:	02112623          	sw	ra,44(sp)
     7c0:	02812423          	sw	s0,40(sp)
     7c4:	03010413          	addi	s0,sp,48
     7c8:	fca42e23          	sw	a0,-36(s0)
     7cc:	fdc42703          	lw	a4,-36(s0)
     7d0:	00a00793          	li	a5,10
     7d4:	02f767b3          	rem	a5,a4,a5
     7d8:	fef42623          	sw	a5,-20(s0)
     7dc:	fe042423          	sw	zero,-24(s0)
     7e0:	0400006f          	j	820 <__heap_size+0x20>
     7e4:	fdc42703          	lw	a4,-36(s0)
     7e8:	00a00793          	li	a5,10
     7ec:	02f747b3          	div	a5,a4,a5
     7f0:	fcf42e23          	sw	a5,-36(s0)
     7f4:	00000613          	li	a2,0
     7f8:	fec42583          	lw	a1,-20(s0)
     7fc:	fe842503          	lw	a0,-24(s0)
     800:	ec1ff0ef          	jal	6c0 <set_displays>
     804:	fdc42703          	lw	a4,-36(s0)
     808:	00a00793          	li	a5,10
     80c:	02f767b3          	rem	a5,a4,a5
     810:	fef42623          	sw	a5,-20(s0)
     814:	fe842783          	lw	a5,-24(s0)
     818:	00178793          	addi	a5,a5,1
     81c:	fef42423          	sw	a5,-24(s0)
     820:	fdc42783          	lw	a5,-36(s0)
     824:	fc0790e3          	bnez	a5,7e4 <set_score+0x2c>
     828:	00000013          	nop
     82c:	00000013          	nop
     830:	02c12083          	lw	ra,44(sp)
     834:	02812403          	lw	s0,40(sp)
     838:	03010113          	addi	sp,sp,48
     83c:	00008067          	ret

00000840 <toggle_high_score_display>:
     840:	ff010113          	addi	sp,sp,-16
     844:	00112623          	sw	ra,12(sp)
     848:	00812423          	sw	s0,8(sp)
     84c:	01010413          	addi	s0,sp,16
     850:	000027b7          	lui	a5,0x2
     854:	3c07a783          	lw	a5,960(a5) # 23c0 <toggle_high_score.1>
     858:	00078e63          	beqz	a5,874 <toggle_high_score_display+0x34>
     85c:	000027b7          	lui	a5,0x2
     860:	3b47a783          	lw	a5,948(a5) # 23b4 <high_score>
     864:	0007a783          	lw	a5,0(a5)
     868:	00078513          	mv	a0,a5
     86c:	f4dff0ef          	jal	7b8 <set_score>
     870:	0080006f          	j	878 <toggle_high_score_display+0x38>
     874:	eedff0ef          	jal	760 <setup_7seg_displays>
     878:	000027b7          	lui	a5,0x2
     87c:	3c07a783          	lw	a5,960(a5) # 23c0 <toggle_high_score.1>
     880:	00178713          	addi	a4,a5,1
     884:	41f75793          	srai	a5,a4,0x1f
     888:	01f7d793          	srli	a5,a5,0x1f
     88c:	00f70733          	add	a4,a4,a5
     890:	00177713          	andi	a4,a4,1
     894:	40f707b3          	sub	a5,a4,a5
     898:	00078713          	mv	a4,a5
     89c:	000027b7          	lui	a5,0x2
     8a0:	3ce7a023          	sw	a4,960(a5) # 23c0 <toggle_high_score.1>
     8a4:	00000013          	nop
     8a8:	00c12083          	lw	ra,12(sp)
     8ac:	00812403          	lw	s0,8(sp)
     8b0:	01010113          	addi	sp,sp,16
     8b4:	00008067          	ret

000008b8 <handle_interrupt>:
     8b8:	fe010113          	addi	sp,sp,-32
     8bc:	00112e23          	sw	ra,28(sp)
     8c0:	00812c23          	sw	s0,24(sp)
     8c4:	02010413          	addi	s0,sp,32
     8c8:	fea42623          	sw	a0,-20(s0)
     8cc:	fec42703          	lw	a4,-20(s0)
     8d0:	01200793          	li	a5,18
     8d4:	08f71263          	bne	a4,a5,958 <handle_interrupt+0xa0>
     8d8:	000027b7          	lui	a5,0x2
     8dc:	3c47a783          	lw	a5,964(a5) # 23c4 <button_press.0>
     8e0:	04079663          	bnez	a5,92c <handle_interrupt+0x74>
     8e4:	000027b7          	lui	a5,0x2
     8e8:	3d47a703          	lw	a4,980(a5) # 23d4 <status>
     8ec:	00100793          	li	a5,1
     8f0:	00f71a63          	bne	a4,a5,904 <handle_interrupt+0x4c>
     8f4:	00400713          	li	a4,4
     8f8:	000027b7          	lui	a5,0x2
     8fc:	3ce7a623          	sw	a4,972(a5) # 23cc <jump_frames>
     900:	0140006f          	j	914 <handle_interrupt+0x5c>
     904:	000027b7          	lui	a5,0x2
     908:	3bc7a783          	lw	a5,956(a5) # 23bc <proceed>
     90c:	00100713          	li	a4,1
     910:	00e7a023          	sw	a4,0(a5)
     914:	000027b7          	lui	a5,0x2
     918:	3c47a783          	lw	a5,964(a5) # 23c4 <button_press.0>
     91c:	00178713          	addi	a4,a5,1
     920:	000027b7          	lui	a5,0x2
     924:	3ce7a223          	sw	a4,964(a5) # 23c4 <button_press.0>
     928:	00c0006f          	j	934 <handle_interrupt+0x7c>
     92c:	000027b7          	lui	a5,0x2
     930:	3c07a223          	sw	zero,964(a5) # 23c4 <button_press.0>
     934:	000027b7          	lui	a5,0x2
     938:	3a47a783          	lw	a5,932(a5) # 23a4 <button_ptr>
     93c:	00c78793          	addi	a5,a5,12
     940:	0007a703          	lw	a4,0(a5)
     944:	000027b7          	lui	a5,0x2
     948:	3a47a783          	lw	a5,932(a5) # 23a4 <button_ptr>
     94c:	00c78793          	addi	a5,a5,12
     950:	00176713          	ori	a4,a4,1
     954:	00e7a023          	sw	a4,0(a5)
     958:	fec42703          	lw	a4,-20(s0)
     95c:	01100793          	li	a5,17
     960:	04f71063          	bne	a4,a5,9a0 <handle_interrupt+0xe8>
     964:	000027b7          	lui	a5,0x2
     968:	3d47a783          	lw	a5,980(a5) # 23d4 <status>
     96c:	00079863          	bnez	a5,97c <handle_interrupt+0xc4>
     970:	03200513          	li	a0,50
     974:	194010ef          	jal	1b08 <delay>
     978:	ec9ff0ef          	jal	840 <toggle_high_score_display>
     97c:	000027b7          	lui	a5,0x2
     980:	3ac7a783          	lw	a5,940(a5) # 23ac <switch_ptr>
     984:	00c78793          	addi	a5,a5,12
     988:	0007a703          	lw	a4,0(a5)
     98c:	000027b7          	lui	a5,0x2
     990:	3ac7a783          	lw	a5,940(a5) # 23ac <switch_ptr>
     994:	00c78793          	addi	a5,a5,12
     998:	00176713          	ori	a4,a4,1
     99c:	00e7a023          	sw	a4,0(a5)
     9a0:	fec42703          	lw	a4,-20(s0)
     9a4:	01000793          	li	a5,16
     9a8:	06f71863          	bne	a4,a5,a18 <handle_interrupt+0x160>
     9ac:	000027b7          	lui	a5,0x2
     9b0:	3b07a783          	lw	a5,944(a5) # 23b0 <timer_ptr>
     9b4:	0007d783          	lhu	a5,0(a5)
     9b8:	01079713          	slli	a4,a5,0x10
     9bc:	01075713          	srli	a4,a4,0x10
     9c0:	000027b7          	lui	a5,0x2
     9c4:	3b07a783          	lw	a5,944(a5) # 23b0 <timer_ptr>
     9c8:	ffe77713          	andi	a4,a4,-2
     9cc:	01071713          	slli	a4,a4,0x10
     9d0:	01075713          	srli	a4,a4,0x10
     9d4:	00e79023          	sh	a4,0(a5)
     9d8:	000027b7          	lui	a5,0x2
     9dc:	3c87a783          	lw	a5,968(a5) # 23c8 <timeoutcount>
     9e0:	00178713          	addi	a4,a5,1
     9e4:	000027b7          	lui	a5,0x2
     9e8:	3ce7a423          	sw	a4,968(a5) # 23c8 <timeoutcount>
     9ec:	000027b7          	lui	a5,0x2
     9f0:	3c87a703          	lw	a4,968(a5) # 23c8 <timeoutcount>
     9f4:	25800793          	li	a5,600
     9f8:	02f71063          	bne	a4,a5,a18 <handle_interrupt+0x160>
     9fc:	000027b7          	lui	a5,0x2
     a00:	3b87a783          	lw	a5,952(a5) # 23b8 <pipe_speed>
     a04:	00178713          	addi	a4,a5,1
     a08:	000027b7          	lui	a5,0x2
     a0c:	3ae7ac23          	sw	a4,952(a5) # 23b8 <pipe_speed>
     a10:	000027b7          	lui	a5,0x2
     a14:	3c07a423          	sw	zero,968(a5) # 23c8 <timeoutcount>
     a18:	00000013          	nop
     a1c:	01c12083          	lw	ra,28(sp)
     a20:	01812403          	lw	s0,24(sp)
     a24:	02010113          	addi	sp,sp,32
     a28:	00008067          	ret

00000a2c <labinit>:
     a2c:	ff010113          	addi	sp,sp,-16
     a30:	00112623          	sw	ra,12(sp)
     a34:	00812423          	sw	s0,8(sp)
     a38:	01010413          	addi	s0,sp,16
     a3c:	000027b7          	lui	a5,0x2
     a40:	3a47a783          	lw	a5,932(a5) # 23a4 <button_ptr>
     a44:	00878793          	addi	a5,a5,8
     a48:	00100713          	li	a4,1
     a4c:	00e7a023          	sw	a4,0(a5)
     a50:	000027b7          	lui	a5,0x2
     a54:	3ac7a783          	lw	a5,940(a5) # 23ac <switch_ptr>
     a58:	00878793          	addi	a5,a5,8
     a5c:	00100713          	li	a4,1
     a60:	00e7a023          	sw	a4,0(a5)
     a64:	000027b7          	lui	a5,0x2
     a68:	3b07a783          	lw	a5,944(a5) # 23b0 <timer_ptr>
     a6c:	00878793          	addi	a5,a5,8
     a70:	ffffc737          	lui	a4,0xffffc
     a74:	6bf70713          	addi	a4,a4,1727 # ffffc6bf <_stack_end+0xffef9fc7>
     a78:	00e79023          	sh	a4,0(a5)
     a7c:	000027b7          	lui	a5,0x2
     a80:	3b07a783          	lw	a5,944(a5) # 23b0 <timer_ptr>
     a84:	00c78793          	addi	a5,a5,12
     a88:	02d00713          	li	a4,45
     a8c:	00e79023          	sh	a4,0(a5)
     a90:	000027b7          	lui	a5,0x2
     a94:	3b07a783          	lw	a5,944(a5) # 23b0 <timer_ptr>
     a98:	00478793          	addi	a5,a5,4
     a9c:	0007d783          	lhu	a5,0(a5)
     aa0:	01079713          	slli	a4,a5,0x10
     aa4:	01075713          	srli	a4,a4,0x10
     aa8:	000027b7          	lui	a5,0x2
     aac:	3b07a783          	lw	a5,944(a5) # 23b0 <timer_ptr>
     ab0:	00478793          	addi	a5,a5,4
     ab4:	00776713          	ori	a4,a4,7
     ab8:	01071713          	slli	a4,a4,0x10
     abc:	01075713          	srli	a4,a4,0x10
     ac0:	00e79023          	sh	a4,0(a5)
     ac4:	eacff0ef          	jal	170 <enable_interrupt>
     ac8:	00000013          	nop
     acc:	00c12083          	lw	ra,12(sp)
     ad0:	00812403          	lw	s0,8(sp)
     ad4:	01010113          	addi	sp,sp,16
     ad8:	00008067          	ret

00000adc <drawBackground>:
     adc:	fd010113          	addi	sp,sp,-48
     ae0:	02812623          	sw	s0,44(sp)
     ae4:	03010413          	addi	s0,sp,48
     ae8:	fca42e23          	sw	a0,-36(s0)
     aec:	fe042623          	sw	zero,-20(s0)
     af0:	0400006f          	j	b30 <drawBackground+0x54>
     af4:	000027b7          	lui	a5,0x2
     af8:	39c7a703          	lw	a4,924(a5) # 239c <VGA>
     afc:	000137b7          	lui	a5,0x13
     b00:	c0078693          	addi	a3,a5,-1024 # 12c00 <__global_pointer+0x10067>
     b04:	fdc42783          	lw	a5,-36(s0)
     b08:	02f687b3          	mul	a5,a3,a5
     b0c:	00078693          	mv	a3,a5
     b10:	fec42783          	lw	a5,-20(s0)
     b14:	00f687b3          	add	a5,a3,a5
     b18:	00f707b3          	add	a5,a4,a5
     b1c:	01300713          	li	a4,19
     b20:	00e78023          	sb	a4,0(a5)
     b24:	fec42783          	lw	a5,-20(s0)
     b28:	00178793          	addi	a5,a5,1
     b2c:	fef42623          	sw	a5,-20(s0)
     b30:	14000713          	li	a4,320
     b34:	0c800793          	li	a5,200
     b38:	02f707b3          	mul	a5,a4,a5
     b3c:	fec42703          	lw	a4,-20(s0)
     b40:	faf74ae3          	blt	a4,a5,af4 <drawBackground+0x18>
     b44:	00000013          	nop
     b48:	00000013          	nop
     b4c:	02c12403          	lw	s0,44(sp)
     b50:	03010113          	addi	sp,sp,48
     b54:	00008067          	ret

00000b58 <drawBird>:
     b58:	fb010113          	addi	sp,sp,-80
     b5c:	04112623          	sw	ra,76(sp)
     b60:	04812423          	sw	s0,72(sp)
     b64:	05212223          	sw	s2,68(sp)
     b68:	05312023          	sw	s3,64(sp)
     b6c:	05010413          	addi	s0,sp,80
     b70:	faa42e23          	sw	a0,-68(s0)
     b74:	fab42c23          	sw	a1,-72(s0)
     b78:	00700793          	li	a5,7
     b7c:	fbc42703          	lw	a4,-68(s0)
     b80:	40f707b3          	sub	a5,a4,a5
     b84:	0007d463          	bgez	a5,b8c <drawBird+0x34>
     b88:	00000793          	li	a5,0
     b8c:	fcf42a23          	sw	a5,-44(s0)
     b90:	00700793          	li	a5,7
     b94:	fbc42703          	lw	a4,-68(s0)
     b98:	00f707b3          	add	a5,a4,a5
     b9c:	fcf42823          	sw	a5,-48(s0)
     ba0:	fd442783          	lw	a5,-44(s0)
     ba4:	fef42623          	sw	a5,-20(s0)
     ba8:	0740006f          	j	c1c <drawBird+0xc4>
     bac:	03900793          	li	a5,57
     bb0:	fef42423          	sw	a5,-24(s0)
     bb4:	0500006f          	j	c04 <drawBird+0xac>
     bb8:	000027b7          	lui	a5,0x2
     bbc:	39c7a703          	lw	a4,924(a5) # 239c <VGA>
     bc0:	000137b7          	lui	a5,0x13
     bc4:	c0078693          	addi	a3,a5,-1024 # 12c00 <__global_pointer+0x10067>
     bc8:	fb842783          	lw	a5,-72(s0)
     bcc:	02f687b3          	mul	a5,a3,a5
     bd0:	00078613          	mv	a2,a5
     bd4:	14000693          	li	a3,320
     bd8:	fec42783          	lw	a5,-20(s0)
     bdc:	02f687b3          	mul	a5,a3,a5
     be0:	00f606b3          	add	a3,a2,a5
     be4:	fe842783          	lw	a5,-24(s0)
     be8:	00f687b3          	add	a5,a3,a5
     bec:	00f707b3          	add	a5,a4,a5
     bf0:	0e000713          	li	a4,224
     bf4:	00e78023          	sb	a4,0(a5)
     bf8:	fe842783          	lw	a5,-24(s0)
     bfc:	00178793          	addi	a5,a5,1
     c00:	fef42423          	sw	a5,-24(s0)
     c04:	04700793          	li	a5,71
     c08:	fe842703          	lw	a4,-24(s0)
     c0c:	faf746e3          	blt	a4,a5,bb8 <drawBird+0x60>
     c10:	fec42783          	lw	a5,-20(s0)
     c14:	00178793          	addi	a5,a5,1
     c18:	fef42623          	sw	a5,-20(s0)
     c1c:	fec42703          	lw	a4,-20(s0)
     c20:	fd042783          	lw	a5,-48(s0)
     c24:	f8f744e3          	blt	a4,a5,bac <drawBird+0x54>
     c28:	fe042223          	sw	zero,-28(s0)
     c2c:	2300006f          	j	e5c <drawBird+0x304>
     c30:	fe042023          	sw	zero,-32(s0)
     c34:	2100006f          	j	e44 <drawBird+0x2ec>
     c38:	fbc42703          	lw	a4,-68(s0)
     c3c:	fe042783          	lw	a5,-32(s0)
     c40:	00f707b3          	add	a5,a4,a5
     c44:	1e07ca63          	bltz	a5,e38 <drawBird+0x2e0>
     c48:	000027b7          	lui	a5,0x2
     c4c:	3cc7a783          	lw	a5,972(a5) # 23cc <jump_frames>
     c50:	14f05e63          	blez	a5,dac <drawBird+0x254>
     c54:	fe042503          	lw	a0,-32(s0)
     c58:	4d4010ef          	jal	212c <__floatsidf>
     c5c:	00050713          	mv	a4,a0
     c60:	00058793          	mv	a5,a1
     c64:	000026b7          	lui	a3,0x2
     c68:	4786a603          	lw	a2,1144(a3) # 2478 <proceed_val+0xa0>
     c6c:	47c6a683          	lw	a3,1148(a3)
     c70:	00070513          	mv	a0,a4
     c74:	00078593          	mv	a1,a5
     c78:	4f4010ef          	jal	216c <__muldf3>
     c7c:	00050713          	mv	a4,a0
     c80:	00058793          	mv	a5,a1
     c84:	00070913          	mv	s2,a4
     c88:	00078993          	mv	s3,a5
     c8c:	00600713          	li	a4,6
     c90:	fe442783          	lw	a5,-28(s0)
     c94:	40f707b3          	sub	a5,a4,a5
     c98:	00078513          	mv	a0,a5
     c9c:	490010ef          	jal	212c <__floatsidf>
     ca0:	00050713          	mv	a4,a0
     ca4:	00058793          	mv	a5,a1
     ca8:	00070613          	mv	a2,a4
     cac:	00078693          	mv	a3,a5
     cb0:	00090513          	mv	a0,s2
     cb4:	00098593          	mv	a1,s3
     cb8:	438010ef          	jal	20f0 <__eqdf2>
     cbc:	00050793          	mv	a5,a0
     cc0:	08078a63          	beqz	a5,d54 <drawBird+0x1fc>
     cc4:	fe042503          	lw	a0,-32(s0)
     cc8:	464010ef          	jal	212c <__floatsidf>
     ccc:	00050713          	mv	a4,a0
     cd0:	00058793          	mv	a5,a1
     cd4:	000026b7          	lui	a3,0x2
     cd8:	4786a603          	lw	a2,1144(a3) # 2478 <proceed_val+0xa0>
     cdc:	47c6a683          	lw	a3,1148(a3)
     ce0:	00070513          	mv	a0,a4
     ce4:	00078593          	mv	a1,a5
     ce8:	484010ef          	jal	216c <__muldf3>
     cec:	00050713          	mv	a4,a0
     cf0:	00058793          	mv	a5,a1
     cf4:	00070513          	mv	a0,a4
     cf8:	00078593          	mv	a1,a5
     cfc:	000027b7          	lui	a5,0x2
     d00:	4807a603          	lw	a2,1152(a5) # 2480 <proceed_val+0xa8>
     d04:	4847a683          	lw	a3,1156(a5)
     d08:	0d0010ef          	jal	1dd8 <__subdf3>
     d0c:	00050713          	mv	a4,a0
     d10:	00058793          	mv	a5,a1
     d14:	00070913          	mv	s2,a4
     d18:	00078993          	mv	s3,a5
     d1c:	00600713          	li	a4,6
     d20:	fe442783          	lw	a5,-28(s0)
     d24:	40f707b3          	sub	a5,a4,a5
     d28:	00078513          	mv	a0,a5
     d2c:	400010ef          	jal	212c <__floatsidf>
     d30:	00050713          	mv	a4,a0
     d34:	00058793          	mv	a5,a1
     d38:	00070613          	mv	a2,a4
     d3c:	00078693          	mv	a3,a5
     d40:	00090513          	mv	a0,s2
     d44:	00098593          	mv	a1,s3
     d48:	3a8010ef          	jal	20f0 <__eqdf2>
     d4c:	00050793          	mv	a5,a0
     d50:	0e079463          	bnez	a5,e38 <drawBird+0x2e0>
     d54:	000027b7          	lui	a5,0x2
     d58:	39c7a703          	lw	a4,924(a5) # 239c <VGA>
     d5c:	000137b7          	lui	a5,0x13
     d60:	c0078693          	addi	a3,a5,-1024 # 12c00 <__global_pointer+0x10067>
     d64:	fb842783          	lw	a5,-72(s0)
     d68:	02f687b3          	mul	a5,a3,a5
     d6c:	00078613          	mv	a2,a5
     d70:	fbc42683          	lw	a3,-68(s0)
     d74:	fe042783          	lw	a5,-32(s0)
     d78:	00f686b3          	add	a3,a3,a5
     d7c:	14000793          	li	a5,320
     d80:	02f687b3          	mul	a5,a3,a5
     d84:	00f607b3          	add	a5,a2,a5
     d88:	03900693          	li	a3,57
     d8c:	00268613          	addi	a2,a3,2
     d90:	fe442683          	lw	a3,-28(s0)
     d94:	00d606b3          	add	a3,a2,a3
     d98:	00d787b3          	add	a5,a5,a3
     d9c:	00f707b3          	add	a5,a4,a5
     da0:	f8000713          	li	a4,-128
     da4:	00e78023          	sb	a4,0(a5)
     da8:	0900006f          	j	e38 <drawBird+0x2e0>
     dac:	fe042783          	lw	a5,-32(s0)
     db0:	fff78713          	addi	a4,a5,-1
     db4:	00070793          	mv	a5,a4
     db8:	00179793          	slli	a5,a5,0x1
     dbc:	00e787b3          	add	a5,a5,a4
     dc0:	fe442703          	lw	a4,-28(s0)
     dc4:	02f70063          	beq	a4,a5,de4 <drawBird+0x28c>
     dc8:	fe042703          	lw	a4,-32(s0)
     dcc:	00070793          	mv	a5,a4
     dd0:	00179793          	slli	a5,a5,0x1
     dd4:	00e787b3          	add	a5,a5,a4
     dd8:	ffe78793          	addi	a5,a5,-2
     ddc:	fe442703          	lw	a4,-28(s0)
     de0:	04f71c63          	bne	a4,a5,e38 <drawBird+0x2e0>
     de4:	000027b7          	lui	a5,0x2
     de8:	39c7a703          	lw	a4,924(a5) # 239c <VGA>
     dec:	000137b7          	lui	a5,0x13
     df0:	c0078693          	addi	a3,a5,-1024 # 12c00 <__global_pointer+0x10067>
     df4:	fb842783          	lw	a5,-72(s0)
     df8:	02f687b3          	mul	a5,a3,a5
     dfc:	00078613          	mv	a2,a5
     e00:	fbc42683          	lw	a3,-68(s0)
     e04:	fe042783          	lw	a5,-32(s0)
     e08:	00f686b3          	add	a3,a3,a5
     e0c:	14000793          	li	a5,320
     e10:	02f687b3          	mul	a5,a3,a5
     e14:	00f607b3          	add	a5,a2,a5
     e18:	03900693          	li	a3,57
     e1c:	00268613          	addi	a2,a3,2
     e20:	fe442683          	lw	a3,-28(s0)
     e24:	00d606b3          	add	a3,a2,a3
     e28:	00d787b3          	add	a5,a5,a3
     e2c:	00f707b3          	add	a5,a4,a5
     e30:	f8000713          	li	a4,-128
     e34:	00e78023          	sb	a4,0(a5)
     e38:	fe042783          	lw	a5,-32(s0)
     e3c:	00178793          	addi	a5,a5,1
     e40:	fef42023          	sw	a5,-32(s0)
     e44:	fe042703          	lw	a4,-32(s0)
     e48:	00400793          	li	a5,4
     e4c:	dee7d6e3          	bge	a5,a4,c38 <drawBird+0xe0>
     e50:	fe442783          	lw	a5,-28(s0)
     e54:	00178793          	addi	a5,a5,1
     e58:	fef42223          	sw	a5,-28(s0)
     e5c:	fe442703          	lw	a4,-28(s0)
     e60:	00400793          	li	a5,4
     e64:	dce7d6e3          	bge	a5,a4,c30 <drawBird+0xd8>
     e68:	fd042783          	lw	a5,-48(s0)
     e6c:	00b00713          	li	a4,11
     e70:	00e7d463          	bge	a5,a4,e78 <drawBird+0x320>
     e74:	00b00793          	li	a5,11
     e78:	ff578793          	addi	a5,a5,-11
     e7c:	fcf42623          	sw	a5,-52(s0)
     e80:	fcc42783          	lw	a5,-52(s0)
     e84:	fcf42e23          	sw	a5,-36(s0)
     e88:	0fc0006f          	j	f84 <drawBird+0x42c>
     e8c:	04700793          	li	a5,71
     e90:	ffb78793          	addi	a5,a5,-5
     e94:	fcf42c23          	sw	a5,-40(s0)
     e98:	0d00006f          	j	f68 <drawBird+0x410>
     e9c:	04700793          	li	a5,71
     ea0:	ffc78793          	addi	a5,a5,-4
     ea4:	fd842703          	lw	a4,-40(s0)
     ea8:	06f74a63          	blt	a4,a5,f1c <drawBird+0x3c4>
     eac:	fd042783          	lw	a5,-48(s0)
     eb0:	ff778793          	addi	a5,a5,-9
     eb4:	fdc42703          	lw	a4,-36(s0)
     eb8:	06f74263          	blt	a4,a5,f1c <drawBird+0x3c4>
     ebc:	04700793          	li	a5,71
     ec0:	ffd78793          	addi	a5,a5,-3
     ec4:	fd842703          	lw	a4,-40(s0)
     ec8:	00f71a63          	bne	a4,a5,edc <drawBird+0x384>
     ecc:	fd042783          	lw	a5,-48(s0)
     ed0:	ff878793          	addi	a5,a5,-8
     ed4:	fdc42703          	lw	a4,-36(s0)
     ed8:	04f70263          	beq	a4,a5,f1c <drawBird+0x3c4>
     edc:	000027b7          	lui	a5,0x2
     ee0:	39c7a703          	lw	a4,924(a5) # 239c <VGA>
     ee4:	000137b7          	lui	a5,0x13
     ee8:	c0078693          	addi	a3,a5,-1024 # 12c00 <__global_pointer+0x10067>
     eec:	fb842783          	lw	a5,-72(s0)
     ef0:	02f687b3          	mul	a5,a3,a5
     ef4:	00078613          	mv	a2,a5
     ef8:	14000693          	li	a3,320
     efc:	fdc42783          	lw	a5,-36(s0)
     f00:	02f687b3          	mul	a5,a3,a5
     f04:	00f606b3          	add	a3,a2,a5
     f08:	fd842783          	lw	a5,-40(s0)
     f0c:	00f687b3          	add	a5,a3,a5
     f10:	00f707b3          	add	a5,a4,a5
     f14:	00078023          	sb	zero,0(a5)
     f18:	0440006f          	j	f5c <drawBird+0x404>
     f1c:	000027b7          	lui	a5,0x2
     f20:	39c7a703          	lw	a4,924(a5) # 239c <VGA>
     f24:	000137b7          	lui	a5,0x13
     f28:	c0078693          	addi	a3,a5,-1024 # 12c00 <__global_pointer+0x10067>
     f2c:	fb842783          	lw	a5,-72(s0)
     f30:	02f687b3          	mul	a5,a3,a5
     f34:	00078613          	mv	a2,a5
     f38:	14000693          	li	a3,320
     f3c:	fdc42783          	lw	a5,-36(s0)
     f40:	02f687b3          	mul	a5,a3,a5
     f44:	00f606b3          	add	a3,a2,a5
     f48:	fd842783          	lw	a5,-40(s0)
     f4c:	00f687b3          	add	a5,a3,a5
     f50:	00f707b3          	add	a5,a4,a5
     f54:	fff00713          	li	a4,-1
     f58:	00e78023          	sb	a4,0(a5)
     f5c:	fd842783          	lw	a5,-40(s0)
     f60:	00178793          	addi	a5,a5,1
     f64:	fcf42c23          	sw	a5,-40(s0)
     f68:	04700793          	li	a5,71
     f6c:	fff78793          	addi	a5,a5,-1
     f70:	fd842703          	lw	a4,-40(s0)
     f74:	f2f744e3          	blt	a4,a5,e9c <drawBird+0x344>
     f78:	fdc42783          	lw	a5,-36(s0)
     f7c:	00178793          	addi	a5,a5,1
     f80:	fcf42e23          	sw	a5,-36(s0)
     f84:	fd042783          	lw	a5,-48(s0)
     f88:	ffc78793          	addi	a5,a5,-4
     f8c:	fdc42703          	lw	a4,-36(s0)
     f90:	eef74ee3          	blt	a4,a5,e8c <drawBird+0x334>
     f94:	fd042783          	lw	a5,-48(s0)
     f98:	00300713          	li	a4,3
     f9c:	00e7d463          	bge	a5,a4,fa4 <drawBird+0x44c>
     fa0:	00300793          	li	a5,3
     fa4:	ffd78793          	addi	a5,a5,-3
     fa8:	fcf42423          	sw	a5,-56(s0)
     fac:	fd042783          	lw	a5,-48(s0)
     fb0:	00400713          	li	a4,4
     fb4:	00e7d463          	bge	a5,a4,fbc <drawBird+0x464>
     fb8:	00400793          	li	a5,4
     fbc:	ffc78793          	addi	a5,a5,-4
     fc0:	fcf42223          	sw	a5,-60(s0)
     fc4:	fc842783          	lw	a5,-56(s0)
     fc8:	0cf05a63          	blez	a5,109c <drawBird+0x544>
     fcc:	000027b7          	lui	a5,0x2
     fd0:	39c7a703          	lw	a4,924(a5) # 239c <VGA>
     fd4:	000137b7          	lui	a5,0x13
     fd8:	c0078693          	addi	a3,a5,-1024 # 12c00 <__global_pointer+0x10067>
     fdc:	fb842783          	lw	a5,-72(s0)
     fe0:	02f687b3          	mul	a5,a3,a5
     fe4:	00078613          	mv	a2,a5
     fe8:	14000693          	li	a3,320
     fec:	fc842783          	lw	a5,-56(s0)
     ff0:	02f687b3          	mul	a5,a3,a5
     ff4:	00f607b3          	add	a5,a2,a5
     ff8:	04700693          	li	a3,71
     ffc:	00d787b3          	add	a5,a5,a3
    1000:	fff78793          	addi	a5,a5,-1
    1004:	00f707b3          	add	a5,a4,a5
    1008:	07c00713          	li	a4,124
    100c:	00e78023          	sb	a4,0(a5)
    1010:	fc442783          	lw	a5,-60(s0)
    1014:	08f05463          	blez	a5,109c <drawBird+0x544>
    1018:	000027b7          	lui	a5,0x2
    101c:	39c7a703          	lw	a4,924(a5) # 239c <VGA>
    1020:	000137b7          	lui	a5,0x13
    1024:	c0078693          	addi	a3,a5,-1024 # 12c00 <__global_pointer+0x10067>
    1028:	fb842783          	lw	a5,-72(s0)
    102c:	02f687b3          	mul	a5,a3,a5
    1030:	00078613          	mv	a2,a5
    1034:	14000693          	li	a3,320
    1038:	fc442783          	lw	a5,-60(s0)
    103c:	02f687b3          	mul	a5,a3,a5
    1040:	00f607b3          	add	a5,a2,a5
    1044:	04700693          	li	a3,71
    1048:	00d787b3          	add	a5,a5,a3
    104c:	fff78793          	addi	a5,a5,-1
    1050:	00f707b3          	add	a5,a4,a5
    1054:	07c00713          	li	a4,124
    1058:	00e78023          	sb	a4,0(a5)
    105c:	000027b7          	lui	a5,0x2
    1060:	39c7a703          	lw	a4,924(a5) # 239c <VGA>
    1064:	000137b7          	lui	a5,0x13
    1068:	c0078693          	addi	a3,a5,-1024 # 12c00 <__global_pointer+0x10067>
    106c:	fb842783          	lw	a5,-72(s0)
    1070:	02f687b3          	mul	a5,a3,a5
    1074:	00078613          	mv	a2,a5
    1078:	14000693          	li	a3,320
    107c:	fc442783          	lw	a5,-60(s0)
    1080:	02f687b3          	mul	a5,a3,a5
    1084:	00f607b3          	add	a5,a2,a5
    1088:	04700693          	li	a3,71
    108c:	00d787b3          	add	a5,a5,a3
    1090:	00f707b3          	add	a5,a4,a5
    1094:	07c00713          	li	a4,124
    1098:	00e78023          	sb	a4,0(a5)
    109c:	00000013          	nop
    10a0:	04c12083          	lw	ra,76(sp)
    10a4:	04812403          	lw	s0,72(sp)
    10a8:	04412903          	lw	s2,68(sp)
    10ac:	04012983          	lw	s3,64(sp)
    10b0:	05010113          	addi	sp,sp,80
    10b4:	00008067          	ret

000010b8 <drawPipes>:
    10b8:	fb010113          	addi	sp,sp,-80
    10bc:	04812623          	sw	s0,76(sp)
    10c0:	05010413          	addi	s0,sp,80
    10c4:	faa42e23          	sw	a0,-68(s0)
    10c8:	fab42c23          	sw	a1,-72(s0)
    10cc:	fac42a23          	sw	a2,-76(s0)
    10d0:	fad42823          	sw	a3,-80(s0)
    10d4:	fb842783          	lw	a5,-72(s0)
    10d8:	fef42623          	sw	a5,-20(s0)
    10dc:	fb442783          	lw	a5,-76(s0)
    10e0:	fef42423          	sw	a5,-24(s0)
    10e4:	3180006f          	j	13fc <drawPipes+0x344>
    10e8:	00f00793          	li	a5,15
    10ec:	fe842703          	lw	a4,-24(s0)
    10f0:	40f707b3          	sub	a5,a4,a5
    10f4:	0007d463          	bgez	a5,10fc <drawPipes+0x44>
    10f8:	00000793          	li	a5,0
    10fc:	fcf42a23          	sw	a5,-44(s0)
    1100:	00f00713          	li	a4,15
    1104:	fe842783          	lw	a5,-24(s0)
    1108:	00f707b3          	add	a5,a4,a5
    110c:	14000713          	li	a4,320
    1110:	00f75463          	bge	a4,a5,1118 <drawPipes+0x60>
    1114:	00070793          	mv	a5,a4
    1118:	fcf42823          	sw	a5,-48(s0)
    111c:	fec42783          	lw	a5,-20(s0)
    1120:	00279793          	slli	a5,a5,0x2
    1124:	fbc42703          	lw	a4,-68(s0)
    1128:	00f707b3          	add	a5,a4,a5
    112c:	0007a783          	lw	a5,0(a5)
    1130:	fcf42623          	sw	a5,-52(s0)
    1134:	fe042223          	sw	zero,-28(s0)
    1138:	13c0006f          	j	1274 <drawPipes+0x1bc>
    113c:	fd442783          	lw	a5,-44(s0)
    1140:	fef42023          	sw	a5,-32(s0)
    1144:	1180006f          	j	125c <drawPipes+0x1a4>
    1148:	fd442783          	lw	a5,-44(s0)
    114c:	00578793          	addi	a5,a5,5
    1150:	fe042703          	lw	a4,-32(s0)
    1154:	0ae7de63          	bge	a5,a4,1210 <drawPipes+0x158>
    1158:	fd042783          	lw	a5,-48(s0)
    115c:	ffc78793          	addi	a5,a5,-4
    1160:	fe042703          	lw	a4,-32(s0)
    1164:	0af75663          	bge	a4,a5,1210 <drawPipes+0x158>
    1168:	fd042783          	lw	a5,-48(s0)
    116c:	ff678793          	addi	a5,a5,-10
    1170:	fe042703          	lw	a4,-32(s0)
    1174:	04f74c63          	blt	a4,a5,11cc <drawPipes+0x114>
    1178:	fd042783          	lw	a5,-48(s0)
    117c:	ff978793          	addi	a5,a5,-7
    1180:	fe042703          	lw	a4,-32(s0)
    1184:	04f75463          	bge	a4,a5,11cc <drawPipes+0x114>
    1188:	000027b7          	lui	a5,0x2
    118c:	39c7a703          	lw	a4,924(a5) # 239c <VGA>
    1190:	000137b7          	lui	a5,0x13
    1194:	c0078693          	addi	a3,a5,-1024 # 12c00 <__global_pointer+0x10067>
    1198:	fb042783          	lw	a5,-80(s0)
    119c:	02f687b3          	mul	a5,a3,a5
    11a0:	00078613          	mv	a2,a5
    11a4:	14000693          	li	a3,320
    11a8:	fe442783          	lw	a5,-28(s0)
    11ac:	02f687b3          	mul	a5,a3,a5
    11b0:	00f606b3          	add	a3,a2,a5
    11b4:	fe042783          	lw	a5,-32(s0)
    11b8:	00f687b3          	add	a5,a3,a5
    11bc:	00f707b3          	add	a5,a4,a5
    11c0:	03500713          	li	a4,53
    11c4:	00e78023          	sb	a4,0(a5)
    11c8:	0880006f          	j	1250 <drawPipes+0x198>
    11cc:	000027b7          	lui	a5,0x2
    11d0:	39c7a703          	lw	a4,924(a5) # 239c <VGA>
    11d4:	000137b7          	lui	a5,0x13
    11d8:	c0078693          	addi	a3,a5,-1024 # 12c00 <__global_pointer+0x10067>
    11dc:	fb042783          	lw	a5,-80(s0)
    11e0:	02f687b3          	mul	a5,a3,a5
    11e4:	00078613          	mv	a2,a5
    11e8:	14000693          	li	a3,320
    11ec:	fe442783          	lw	a5,-28(s0)
    11f0:	02f687b3          	mul	a5,a3,a5
    11f4:	00f606b3          	add	a3,a2,a5
    11f8:	fe042783          	lw	a5,-32(s0)
    11fc:	00f687b3          	add	a5,a3,a5
    1200:	00f707b3          	add	a5,a4,a5
    1204:	02c00713          	li	a4,44
    1208:	00e78023          	sb	a4,0(a5)
    120c:	0440006f          	j	1250 <drawPipes+0x198>
    1210:	000027b7          	lui	a5,0x2
    1214:	39c7a703          	lw	a4,924(a5) # 239c <VGA>
    1218:	000137b7          	lui	a5,0x13
    121c:	c0078693          	addi	a3,a5,-1024 # 12c00 <__global_pointer+0x10067>
    1220:	fb042783          	lw	a5,-80(s0)
    1224:	02f687b3          	mul	a5,a3,a5
    1228:	00078613          	mv	a2,a5
    122c:	14000693          	li	a3,320
    1230:	fe442783          	lw	a5,-28(s0)
    1234:	02f687b3          	mul	a5,a3,a5
    1238:	00f606b3          	add	a3,a2,a5
    123c:	fe042783          	lw	a5,-32(s0)
    1240:	00f687b3          	add	a5,a3,a5
    1244:	00f707b3          	add	a5,a4,a5
    1248:	00800713          	li	a4,8
    124c:	00e78023          	sb	a4,0(a5)
    1250:	fe042783          	lw	a5,-32(s0)
    1254:	00178793          	addi	a5,a5,1
    1258:	fef42023          	sw	a5,-32(s0)
    125c:	fe042703          	lw	a4,-32(s0)
    1260:	fd042783          	lw	a5,-48(s0)
    1264:	eef742e3          	blt	a4,a5,1148 <drawPipes+0x90>
    1268:	fe442783          	lw	a5,-28(s0)
    126c:	00178793          	addi	a5,a5,1
    1270:	fef42223          	sw	a5,-28(s0)
    1274:	01e00793          	li	a5,30
    1278:	fcc42703          	lw	a4,-52(s0)
    127c:	40f707b3          	sub	a5,a4,a5
    1280:	fe442703          	lw	a4,-28(s0)
    1284:	eaf74ce3          	blt	a4,a5,113c <drawPipes+0x84>
    1288:	01e00793          	li	a5,30
    128c:	fcc42703          	lw	a4,-52(s0)
    1290:	00f707b3          	add	a5,a4,a5
    1294:	fcf42e23          	sw	a5,-36(s0)
    1298:	13c0006f          	j	13d4 <drawPipes+0x31c>
    129c:	fd442783          	lw	a5,-44(s0)
    12a0:	fcf42c23          	sw	a5,-40(s0)
    12a4:	1180006f          	j	13bc <drawPipes+0x304>
    12a8:	fd442783          	lw	a5,-44(s0)
    12ac:	00578793          	addi	a5,a5,5
    12b0:	fd842703          	lw	a4,-40(s0)
    12b4:	0ae7de63          	bge	a5,a4,1370 <drawPipes+0x2b8>
    12b8:	fd042783          	lw	a5,-48(s0)
    12bc:	ffc78793          	addi	a5,a5,-4
    12c0:	fd842703          	lw	a4,-40(s0)
    12c4:	0af75663          	bge	a4,a5,1370 <drawPipes+0x2b8>
    12c8:	fd042783          	lw	a5,-48(s0)
    12cc:	ff678793          	addi	a5,a5,-10
    12d0:	fd842703          	lw	a4,-40(s0)
    12d4:	04f74c63          	blt	a4,a5,132c <drawPipes+0x274>
    12d8:	fd042783          	lw	a5,-48(s0)
    12dc:	ff978793          	addi	a5,a5,-7
    12e0:	fd842703          	lw	a4,-40(s0)
    12e4:	04f75463          	bge	a4,a5,132c <drawPipes+0x274>
    12e8:	000027b7          	lui	a5,0x2
    12ec:	39c7a703          	lw	a4,924(a5) # 239c <VGA>
    12f0:	000137b7          	lui	a5,0x13
    12f4:	c0078693          	addi	a3,a5,-1024 # 12c00 <__global_pointer+0x10067>
    12f8:	fb042783          	lw	a5,-80(s0)
    12fc:	02f687b3          	mul	a5,a3,a5
    1300:	00078613          	mv	a2,a5
    1304:	14000693          	li	a3,320
    1308:	fdc42783          	lw	a5,-36(s0)
    130c:	02f687b3          	mul	a5,a3,a5
    1310:	00f606b3          	add	a3,a2,a5
    1314:	fd842783          	lw	a5,-40(s0)
    1318:	00f687b3          	add	a5,a3,a5
    131c:	00f707b3          	add	a5,a4,a5
    1320:	03500713          	li	a4,53
    1324:	00e78023          	sb	a4,0(a5)
    1328:	0880006f          	j	13b0 <drawPipes+0x2f8>
    132c:	000027b7          	lui	a5,0x2
    1330:	39c7a703          	lw	a4,924(a5) # 239c <VGA>
    1334:	000137b7          	lui	a5,0x13
    1338:	c0078693          	addi	a3,a5,-1024 # 12c00 <__global_pointer+0x10067>
    133c:	fb042783          	lw	a5,-80(s0)
    1340:	02f687b3          	mul	a5,a3,a5
    1344:	00078613          	mv	a2,a5
    1348:	14000693          	li	a3,320
    134c:	fdc42783          	lw	a5,-36(s0)
    1350:	02f687b3          	mul	a5,a3,a5
    1354:	00f606b3          	add	a3,a2,a5
    1358:	fd842783          	lw	a5,-40(s0)
    135c:	00f687b3          	add	a5,a3,a5
    1360:	00f707b3          	add	a5,a4,a5
    1364:	02c00713          	li	a4,44
    1368:	00e78023          	sb	a4,0(a5)
    136c:	0440006f          	j	13b0 <drawPipes+0x2f8>
    1370:	000027b7          	lui	a5,0x2
    1374:	39c7a703          	lw	a4,924(a5) # 239c <VGA>
    1378:	000137b7          	lui	a5,0x13
    137c:	c0078693          	addi	a3,a5,-1024 # 12c00 <__global_pointer+0x10067>
    1380:	fb042783          	lw	a5,-80(s0)
    1384:	02f687b3          	mul	a5,a3,a5
    1388:	00078613          	mv	a2,a5
    138c:	14000693          	li	a3,320
    1390:	fdc42783          	lw	a5,-36(s0)
    1394:	02f687b3          	mul	a5,a3,a5
    1398:	00f606b3          	add	a3,a2,a5
    139c:	fd842783          	lw	a5,-40(s0)
    13a0:	00f687b3          	add	a5,a3,a5
    13a4:	00f707b3          	add	a5,a4,a5
    13a8:	00800713          	li	a4,8
    13ac:	00e78023          	sb	a4,0(a5)
    13b0:	fd842783          	lw	a5,-40(s0)
    13b4:	00178793          	addi	a5,a5,1
    13b8:	fcf42c23          	sw	a5,-40(s0)
    13bc:	fd842703          	lw	a4,-40(s0)
    13c0:	fd042783          	lw	a5,-48(s0)
    13c4:	eef742e3          	blt	a4,a5,12a8 <drawPipes+0x1f0>
    13c8:	fdc42783          	lw	a5,-36(s0)
    13cc:	00178793          	addi	a5,a5,1
    13d0:	fcf42e23          	sw	a5,-36(s0)
    13d4:	0c800793          	li	a5,200
    13d8:	fdc42703          	lw	a4,-36(s0)
    13dc:	ecf740e3          	blt	a4,a5,129c <drawPipes+0x1e4>
    13e0:	fec42783          	lw	a5,-20(s0)
    13e4:	00178793          	addi	a5,a5,1
    13e8:	fef42623          	sw	a5,-20(s0)
    13ec:	08200793          	li	a5,130
    13f0:	fe842703          	lw	a4,-24(s0)
    13f4:	00f707b3          	add	a5,a4,a5
    13f8:	fef42423          	sw	a5,-24(s0)
    13fc:	00f00793          	li	a5,15
    1400:	fe842703          	lw	a4,-24(s0)
    1404:	40f70733          	sub	a4,a4,a5
    1408:	14000793          	li	a5,320
    140c:	ccf74ee3          	blt	a4,a5,10e8 <drawPipes+0x30>
    1410:	00000013          	nop
    1414:	00000013          	nop
    1418:	04c12403          	lw	s0,76(sp)
    141c:	05010113          	addi	sp,sp,80
    1420:	00008067          	ret

00001424 <game_over>:
    1424:	fd010113          	addi	sp,sp,-48
    1428:	02812623          	sw	s0,44(sp)
    142c:	03010413          	addi	s0,sp,48
    1430:	fca42e23          	sw	a0,-36(s0)
    1434:	000027b7          	lui	a5,0x2
    1438:	00200713          	li	a4,2
    143c:	3ce7aa23          	sw	a4,980(a5) # 23d4 <status>
    1440:	00300713          	li	a4,3
    1444:	000027b7          	lui	a5,0x2
    1448:	3ae7ac23          	sw	a4,952(a5) # 23b8 <pipe_speed>
    144c:	000027b7          	lui	a5,0x2
    1450:	3c07a423          	sw	zero,968(a5) # 23c8 <timeoutcount>
    1454:	fe042623          	sw	zero,-20(s0)
    1458:	0400006f          	j	1498 <game_over+0x74>
    145c:	000027b7          	lui	a5,0x2
    1460:	39c7a703          	lw	a4,924(a5) # 239c <VGA>
    1464:	000137b7          	lui	a5,0x13
    1468:	c0078693          	addi	a3,a5,-1024 # 12c00 <__global_pointer+0x10067>
    146c:	fdc42783          	lw	a5,-36(s0)
    1470:	02f687b3          	mul	a5,a3,a5
    1474:	00078693          	mv	a3,a5
    1478:	fec42783          	lw	a5,-20(s0)
    147c:	00f687b3          	add	a5,a3,a5
    1480:	00f707b3          	add	a5,a4,a5
    1484:	0e000713          	li	a4,224
    1488:	00e78023          	sb	a4,0(a5)
    148c:	fec42783          	lw	a5,-20(s0)
    1490:	00178793          	addi	a5,a5,1
    1494:	fef42623          	sw	a5,-20(s0)
    1498:	000137b7          	lui	a5,0x13
    149c:	c0078793          	addi	a5,a5,-1024 # 12c00 <__global_pointer+0x10067>
    14a0:	fec42703          	lw	a4,-20(s0)
    14a4:	faf74ce3          	blt	a4,a5,145c <game_over+0x38>
    14a8:	000137b7          	lui	a5,0x13
    14ac:	c0078713          	addi	a4,a5,-1024 # 12c00 <__global_pointer+0x10067>
    14b0:	fdc42783          	lw	a5,-36(s0)
    14b4:	02f707b3          	mul	a5,a4,a5
    14b8:	00078713          	mv	a4,a5
    14bc:	000027b7          	lui	a5,0x2
    14c0:	39c7a783          	lw	a5,924(a5) # 239c <VGA>
    14c4:	00f70733          	add	a4,a4,a5
    14c8:	000027b7          	lui	a5,0x2
    14cc:	3a07a783          	lw	a5,928(a5) # 23a0 <VGA_CTRL>
    14d0:	00478793          	addi	a5,a5,4
    14d4:	00e7a023          	sw	a4,0(a5)
    14d8:	000027b7          	lui	a5,0x2
    14dc:	3a07a783          	lw	a5,928(a5) # 23a0 <VGA_CTRL>
    14e0:	0007a023          	sw	zero,0(a5)
    14e4:	00000013          	nop
    14e8:	000027b7          	lui	a5,0x2
    14ec:	3bc7a783          	lw	a5,956(a5) # 23bc <proceed>
    14f0:	0007a783          	lw	a5,0(a5)
    14f4:	fe078ae3          	beqz	a5,14e8 <game_over+0xc4>
    14f8:	000027b7          	lui	a5,0x2
    14fc:	3bc7a783          	lw	a5,956(a5) # 23bc <proceed>
    1500:	0007a023          	sw	zero,0(a5)
    1504:	00000013          	nop
    1508:	02c12403          	lw	s0,44(sp)
    150c:	03010113          	addi	sp,sp,48
    1510:	00008067          	ret

00001514 <game>:
    1514:	81010113          	addi	sp,sp,-2032
    1518:	7e112623          	sw	ra,2028(sp)
    151c:	7e812423          	sw	s0,2024(sp)
    1520:	7f010413          	addi	s0,sp,2032
    1524:	82010113          	addi	sp,sp,-2016
    1528:	000027b7          	lui	a5,0x2
    152c:	00100713          	li	a4,1
    1530:	3ce7aa23          	sw	a4,980(a5) # 23d4 <status>
    1534:	00100793          	li	a5,1
    1538:	fef42623          	sw	a5,-20(s0)
    153c:	07800793          	li	a5,120
    1540:	fef42423          	sw	a5,-24(s0)
    1544:	fe042223          	sw	zero,-28(s0)
    1548:	14000713          	li	a4,320
    154c:	00f00793          	li	a5,15
    1550:	00f707b3          	add	a5,a4,a5
    1554:	fef42023          	sw	a5,-32(s0)
    1558:	fc042e23          	sw	zero,-36(s0)
    155c:	fffff7b7          	lui	a5,0xfffff
    1560:	04c78793          	addi	a5,a5,76 # fffff04c <_stack_end+0xffefc954>
    1564:	ff078793          	addi	a5,a5,-16
    1568:	008787b3          	add	a5,a5,s0
    156c:	00078513          	mv	a0,a5
    1570:	800ff0ef          	jal	570 <setup_pipes>
    1574:	8acff0ef          	jal	620 <setup_bg_ground>
    1578:	9e8ff0ef          	jal	760 <setup_7seg_displays>
    157c:	00000613          	li	a2,0
    1580:	00000593          	li	a1,0
    1584:	00000513          	li	a0,0
    1588:	938ff0ef          	jal	6c0 <set_displays>
    158c:	0080006f          	j	1594 <game+0x80>
    1590:	00000013          	nop
    1594:	000027b7          	lui	a5,0x2
    1598:	3a07a783          	lw	a5,928(a5) # 23a0 <VGA_CTRL>
    159c:	00c78793          	addi	a5,a5,12
    15a0:	0007a783          	lw	a5,0(a5)
    15a4:	0017f793          	andi	a5,a5,1
    15a8:	fe0794e3          	bnez	a5,1590 <game+0x7c>
    15ac:	fec42503          	lw	a0,-20(s0)
    15b0:	d2cff0ef          	jal	adc <drawBackground>
    15b4:	fec42583          	lw	a1,-20(s0)
    15b8:	fe842503          	lw	a0,-24(s0)
    15bc:	d9cff0ef          	jal	b58 <drawBird>
    15c0:	fffff7b7          	lui	a5,0xfffff
    15c4:	04c78793          	addi	a5,a5,76 # fffff04c <_stack_end+0xffefc954>
    15c8:	ff078793          	addi	a5,a5,-16
    15cc:	008787b3          	add	a5,a5,s0
    15d0:	fec42683          	lw	a3,-20(s0)
    15d4:	fe042603          	lw	a2,-32(s0)
    15d8:	fe442583          	lw	a1,-28(s0)
    15dc:	00078513          	mv	a0,a5
    15e0:	ad9ff0ef          	jal	10b8 <drawPipes>
    15e4:	000137b7          	lui	a5,0x13
    15e8:	c0078713          	addi	a4,a5,-1024 # 12c00 <__global_pointer+0x10067>
    15ec:	fec42783          	lw	a5,-20(s0)
    15f0:	02f707b3          	mul	a5,a4,a5
    15f4:	00078713          	mv	a4,a5
    15f8:	000027b7          	lui	a5,0x2
    15fc:	39c7a783          	lw	a5,924(a5) # 239c <VGA>
    1600:	00f70733          	add	a4,a4,a5
    1604:	000027b7          	lui	a5,0x2
    1608:	3a07a783          	lw	a5,928(a5) # 23a0 <VGA_CTRL>
    160c:	00478793          	addi	a5,a5,4
    1610:	00e7a023          	sw	a4,0(a5)
    1614:	000027b7          	lui	a5,0x2
    1618:	3a07a783          	lw	a5,928(a5) # 23a0 <VGA_CTRL>
    161c:	0007a023          	sw	zero,0(a5)
    1620:	00500513          	li	a0,5
    1624:	4e4000ef          	jal	1b08 <delay>
    1628:	fec42783          	lw	a5,-20(s0)
    162c:	00178713          	addi	a4,a5,1
    1630:	41f75793          	srai	a5,a4,0x1f
    1634:	01f7d793          	srli	a5,a5,0x1f
    1638:	00f70733          	add	a4,a4,a5
    163c:	00177713          	andi	a4,a4,1
    1640:	40f707b3          	sub	a5,a4,a5
    1644:	fef42623          	sw	a5,-20(s0)
    1648:	00f00713          	li	a4,15
    164c:	fe042783          	lw	a5,-32(s0)
    1650:	00f707b3          	add	a5,a4,a5
    1654:	0207d463          	bgez	a5,167c <game+0x168>
    1658:	fe442783          	lw	a5,-28(s0)
    165c:	00178713          	addi	a4,a5,1
    1660:	3e800793          	li	a5,1000
    1664:	02f767b3          	rem	a5,a4,a5
    1668:	fef42223          	sw	a5,-28(s0)
    166c:	08200793          	li	a5,130
    1670:	fe042703          	lw	a4,-32(s0)
    1674:	00f707b3          	add	a5,a4,a5
    1678:	fef42023          	sw	a5,-32(s0)
    167c:	000027b7          	lui	a5,0x2
    1680:	3b87a783          	lw	a5,952(a5) # 23b8 <pipe_speed>
    1684:	fe042703          	lw	a4,-32(s0)
    1688:	40f707b3          	sub	a5,a4,a5
    168c:	fef42023          	sw	a5,-32(s0)
    1690:	04000713          	li	a4,64
    1694:	00700793          	li	a5,7
    1698:	40f707b3          	sub	a5,a4,a5
    169c:	fe042703          	lw	a4,-32(s0)
    16a0:	02f74863          	blt	a4,a5,16d0 <game+0x1bc>
    16a4:	04000713          	li	a4,64
    16a8:	00700793          	li	a5,7
    16ac:	40f70733          	sub	a4,a4,a5
    16b0:	000027b7          	lui	a5,0x2
    16b4:	3b87a783          	lw	a5,952(a5) # 23b8 <pipe_speed>
    16b8:	00f707b3          	add	a5,a4,a5
    16bc:	fe042703          	lw	a4,-32(s0)
    16c0:	00f75863          	bge	a4,a5,16d0 <game+0x1bc>
    16c4:	fdc42783          	lw	a5,-36(s0)
    16c8:	00178793          	addi	a5,a5,1
    16cc:	fcf42e23          	sw	a5,-36(s0)
    16d0:	fdc42503          	lw	a0,-36(s0)
    16d4:	8e4ff0ef          	jal	7b8 <set_score>
    16d8:	00700713          	li	a4,7
    16dc:	fe842783          	lw	a5,-24(s0)
    16e0:	00f70733          	add	a4,a4,a5
    16e4:	0c800793          	li	a5,200
    16e8:	10f75863          	bge	a4,a5,17f8 <game+0x2e4>
    16ec:	04000713          	li	a4,64
    16f0:	00700793          	li	a5,7
    16f4:	00f70733          	add	a4,a4,a5
    16f8:	00f00793          	li	a5,15
    16fc:	fe042683          	lw	a3,-32(s0)
    1700:	40f687b3          	sub	a5,a3,a5
    1704:	08f74463          	blt	a4,a5,178c <game+0x278>
    1708:	04000713          	li	a4,64
    170c:	00700793          	li	a5,7
    1710:	40f70733          	sub	a4,a4,a5
    1714:	00f00693          	li	a3,15
    1718:	fe042783          	lw	a5,-32(s0)
    171c:	00f687b3          	add	a5,a3,a5
    1720:	06e7c663          	blt	a5,a4,178c <game+0x278>
    1724:	00700713          	li	a4,7
    1728:	fe842783          	lw	a5,-24(s0)
    172c:	00f70733          	add	a4,a4,a5
    1730:	fffff7b7          	lui	a5,0xfffff
    1734:	ff078793          	addi	a5,a5,-16 # ffffeff0 <_stack_end+0xffefc8f8>
    1738:	008786b3          	add	a3,a5,s0
    173c:	fe442783          	lw	a5,-28(s0)
    1740:	00279793          	slli	a5,a5,0x2
    1744:	00f687b3          	add	a5,a3,a5
    1748:	04c7a683          	lw	a3,76(a5)
    174c:	01e00793          	li	a5,30
    1750:	00f687b3          	add	a5,a3,a5
    1754:	0af75463          	bge	a4,a5,17fc <game+0x2e8>
    1758:	00700793          	li	a5,7
    175c:	fe842703          	lw	a4,-24(s0)
    1760:	40f70733          	sub	a4,a4,a5
    1764:	fffff7b7          	lui	a5,0xfffff
    1768:	ff078793          	addi	a5,a5,-16 # ffffeff0 <_stack_end+0xffefc8f8>
    176c:	008786b3          	add	a3,a5,s0
    1770:	fe442783          	lw	a5,-28(s0)
    1774:	00279793          	slli	a5,a5,0x2
    1778:	00f687b3          	add	a5,a3,a5
    177c:	04c7a683          	lw	a3,76(a5)
    1780:	01e00793          	li	a5,30
    1784:	40f687b3          	sub	a5,a3,a5
    1788:	06e7da63          	bge	a5,a4,17fc <game+0x2e8>
    178c:	000027b7          	lui	a5,0x2
    1790:	3cc7a783          	lw	a5,972(a5) # 23cc <jump_frames>
    1794:	02f05663          	blez	a5,17c0 <game+0x2ac>
    1798:	00700793          	li	a5,7
    179c:	fe842703          	lw	a4,-24(s0)
    17a0:	40f707b3          	sub	a5,a4,a5
    17a4:	fef42423          	sw	a5,-24(s0)
    17a8:	000027b7          	lui	a5,0x2
    17ac:	3cc7a783          	lw	a5,972(a5) # 23cc <jump_frames>
    17b0:	fff78713          	addi	a4,a5,-1
    17b4:	000027b7          	lui	a5,0x2
    17b8:	3ce7a623          	sw	a4,972(a5) # 23cc <jump_frames>
    17bc:	dd9ff06f          	j	1594 <game+0x80>
    17c0:	000027b7          	lui	a5,0x2
    17c4:	3cc7a783          	lw	a5,972(a5) # 23cc <jump_frames>
    17c8:	00079e63          	bnez	a5,17e4 <game+0x2d0>
    17cc:	000027b7          	lui	a5,0x2
    17d0:	3cc7a783          	lw	a5,972(a5) # 23cc <jump_frames>
    17d4:	fff78713          	addi	a4,a5,-1
    17d8:	000027b7          	lui	a5,0x2
    17dc:	3ce7a623          	sw	a4,972(a5) # 23cc <jump_frames>
    17e0:	db5ff06f          	j	1594 <game+0x80>
    17e4:	00300793          	li	a5,3
    17e8:	fe842703          	lw	a4,-24(s0)
    17ec:	00f707b3          	add	a5,a4,a5
    17f0:	fef42423          	sw	a5,-24(s0)
    17f4:	da1ff06f          	j	1594 <game+0x80>
    17f8:	00000013          	nop
    17fc:	000027b7          	lui	a5,0x2
    1800:	3b47a783          	lw	a5,948(a5) # 23b4 <high_score>
    1804:	0007a783          	lw	a5,0(a5)
    1808:	fdc42703          	lw	a4,-36(s0)
    180c:	00e7dc63          	bge	a5,a4,1824 <game+0x310>
    1810:	000027b7          	lui	a5,0x2
    1814:	3b47a783          	lw	a5,948(a5) # 23b4 <high_score>
    1818:	fdc42703          	lw	a4,-36(s0)
    181c:	00e7a023          	sw	a4,0(a5)
    1820:	00000013          	nop
    1824:	00000013          	nop
    1828:	7e010113          	addi	sp,sp,2016
    182c:	7ec12083          	lw	ra,2028(sp)
    1830:	7e812403          	lw	s0,2024(sp)
    1834:	7f010113          	addi	sp,sp,2032
    1838:	00008067          	ret

0000183c <main_menu>:
    183c:	fe010113          	addi	sp,sp,-32
    1840:	00112e23          	sw	ra,28(sp)
    1844:	00812c23          	sw	s0,24(sp)
    1848:	02010413          	addi	s0,sp,32
    184c:	000027b7          	lui	a5,0x2
    1850:	3c07aa23          	sw	zero,980(a5) # 23d4 <status>
    1854:	f0dfe0ef          	jal	760 <setup_7seg_displays>
    1858:	fe042623          	sw	zero,-20(s0)
    185c:	0280006f          	j	1884 <main_menu+0x48>
    1860:	000027b7          	lui	a5,0x2
    1864:	39c7a703          	lw	a4,924(a5) # 239c <VGA>
    1868:	fec42783          	lw	a5,-20(s0)
    186c:	00f707b3          	add	a5,a4,a5
    1870:	01300713          	li	a4,19
    1874:	00e78023          	sb	a4,0(a5)
    1878:	fec42783          	lw	a5,-20(s0)
    187c:	00178793          	addi	a5,a5,1
    1880:	fef42623          	sw	a5,-20(s0)
    1884:	000137b7          	lui	a5,0x13
    1888:	c0078793          	addi	a5,a5,-1024 # 12c00 <__global_pointer+0x10067>
    188c:	fec42703          	lw	a4,-20(s0)
    1890:	fcf748e3          	blt	a4,a5,1860 <main_menu+0x24>
    1894:	000027b7          	lui	a5,0x2
    1898:	39c7a703          	lw	a4,924(a5) # 239c <VGA>
    189c:	0f000793          	li	a5,240
    18a0:	01f7d693          	srli	a3,a5,0x1f
    18a4:	00f687b3          	add	a5,a3,a5
    18a8:	4017d793          	srai	a5,a5,0x1
    18ac:	00078613          	mv	a2,a5
    18b0:	04600793          	li	a5,70
    18b4:	01f7d693          	srli	a3,a5,0x1f
    18b8:	00f687b3          	add	a5,a3,a5
    18bc:	4017d793          	srai	a5,a5,0x1
    18c0:	40f007b3          	neg	a5,a5
    18c4:	00f606b3          	add	a3,a2,a5
    18c8:	14000793          	li	a5,320
    18cc:	02f687b3          	mul	a5,a3,a5
    18d0:	00078613          	mv	a2,a5
    18d4:	04600793          	li	a5,70
    18d8:	01f7d693          	srli	a3,a5,0x1f
    18dc:	00f687b3          	add	a5,a3,a5
    18e0:	4017d793          	srai	a5,a5,0x1
    18e4:	40f606b3          	sub	a3,a2,a5
    18e8:	14000793          	li	a5,320
    18ec:	01f7d613          	srli	a2,a5,0x1f
    18f0:	00f607b3          	add	a5,a2,a5
    18f4:	4017d793          	srai	a5,a5,0x1
    18f8:	00f687b3          	add	a5,a3,a5
    18fc:	00f707b3          	add	a5,a4,a5
    1900:	fef42023          	sw	a5,-32(s0)
    1904:	fe042423          	sw	zero,-24(s0)
    1908:	0800006f          	j	1988 <main_menu+0x14c>
    190c:	fe042223          	sw	zero,-28(s0)
    1910:	0600006f          	j	1970 <main_menu+0x134>
    1914:	fe842783          	lw	a5,-24(s0)
    1918:	00179793          	slli	a5,a5,0x1
    191c:	fe442703          	lw	a4,-28(s0)
    1920:	04f75263          	bge	a4,a5,1964 <main_menu+0x128>
    1924:	fe842783          	lw	a5,-24(s0)
    1928:	00179713          	slli	a4,a5,0x1
    192c:	08c00693          	li	a3,140
    1930:	fe442783          	lw	a5,-28(s0)
    1934:	40f687b3          	sub	a5,a3,a5
    1938:	02f75663          	bge	a4,a5,1964 <main_menu+0x128>
    193c:	14000713          	li	a4,320
    1940:	fe842783          	lw	a5,-24(s0)
    1944:	02f707b3          	mul	a5,a4,a5
    1948:	00078713          	mv	a4,a5
    194c:	fe442783          	lw	a5,-28(s0)
    1950:	00f707b3          	add	a5,a4,a5
    1954:	fe042703          	lw	a4,-32(s0)
    1958:	00f707b3          	add	a5,a4,a5
    195c:	fff00713          	li	a4,-1
    1960:	00e78023          	sb	a4,0(a5)
    1964:	fe442783          	lw	a5,-28(s0)
    1968:	00178793          	addi	a5,a5,1
    196c:	fef42223          	sw	a5,-28(s0)
    1970:	fe442703          	lw	a4,-28(s0)
    1974:	04500793          	li	a5,69
    1978:	f8e7dee3          	bge	a5,a4,1914 <main_menu+0xd8>
    197c:	fe842783          	lw	a5,-24(s0)
    1980:	00178793          	addi	a5,a5,1
    1984:	fef42423          	sw	a5,-24(s0)
    1988:	fe842703          	lw	a4,-24(s0)
    198c:	04500793          	li	a5,69
    1990:	f6e7dee3          	bge	a5,a4,190c <main_menu+0xd0>
    1994:	000027b7          	lui	a5,0x2
    1998:	39c7a703          	lw	a4,924(a5) # 239c <VGA>
    199c:	000027b7          	lui	a5,0x2
    19a0:	3a07a783          	lw	a5,928(a5) # 23a0 <VGA_CTRL>
    19a4:	00478793          	addi	a5,a5,4
    19a8:	00e7a023          	sw	a4,0(a5)
    19ac:	000027b7          	lui	a5,0x2
    19b0:	3a07a783          	lw	a5,928(a5) # 23a0 <VGA_CTRL>
    19b4:	0007a023          	sw	zero,0(a5)
    19b8:	00000013          	nop
    19bc:	000027b7          	lui	a5,0x2
    19c0:	3bc7a783          	lw	a5,956(a5) # 23bc <proceed>
    19c4:	0007a783          	lw	a5,0(a5)
    19c8:	fe078ae3          	beqz	a5,19bc <main_menu+0x180>
    19cc:	000027b7          	lui	a5,0x2
    19d0:	3bc7a783          	lw	a5,956(a5) # 23bc <proceed>
    19d4:	0007a023          	sw	zero,0(a5)
    19d8:	b3dff0ef          	jal	1514 <game>
    19dc:	e71ff06f          	j	184c <main_menu+0x10>

000019e0 <analyze>:
    19e0:	03000413          	li	s0,48

000019e4 <loop>:
    19e4:	00040513          	mv	a0,s0
    19e8:	00b00893          	li	a7,11
    19ec:	00000073          	ecall
    19f0:	00340413          	addi	s0,s0,3
    19f4:	05a00293          	li	t0,90
    19f8:	fe82d6e3          	bge	t0,s0,19e4 <loop>
    19fc:	00008067          	ret

00001a00 <display_string>:
    1a00:	00400893          	li	a7,4
    1a04:	00000073          	ecall
    1a08:	00a00513          	li	a0,10
    1a0c:	00b00893          	li	a7,11
    1a10:	00000073          	ecall
    1a14:	00008067          	ret

00001a18 <timetemplate>:
    1a18:	00001517          	auipc	a0,0x1
    1a1c:	96450513          	addi	a0,a0,-1692 # 237c <timstr>
    1a20:	fe1ff0ef          	jal	1a00 <display_string>
    1a24:	00200513          	li	a0,2
    1a28:	0e0000ef          	jal	1b08 <delay>
    1a2c:	00001517          	auipc	a0,0x1
    1a30:	94c50513          	addi	a0,a0,-1716 # 2378 <mytime>
    1a34:	020000ef          	jal	1a54 <tick>
    1a38:	00001517          	auipc	a0,0x1
    1a3c:	94450513          	addi	a0,a0,-1724 # 237c <timstr>
    1a40:	00001297          	auipc	t0,0x1
    1a44:	93828293          	addi	t0,t0,-1736 # 2378 <mytime>
    1a48:	0002a583          	lw	a1,0(t0)
    1a4c:	0e0000ef          	jal	1b2c <time2string>
    1a50:	fc9ff06f          	j	1a18 <timetemplate>

00001a54 <tick>:
    1a54:	00052283          	lw	t0,0(a0)
    1a58:	00128293          	addi	t0,t0,1
    1a5c:	00f2f313          	andi	t1,t0,15
    1a60:	00a33393          	sltiu	t2,t1,10
    1a64:	06039063          	bnez	t2,1ac4 <tiend>
    1a68:	00628293          	addi	t0,t0,6
    1a6c:	0f02f313          	andi	t1,t0,240
    1a70:	06033393          	sltiu	t2,t1,96
    1a74:	04039863          	bnez	t2,1ac4 <tiend>
    1a78:	0a028293          	addi	t0,t0,160
    1a7c:	00f00e13          	li	t3,15
    1a80:	008e1e13          	slli	t3,t3,0x8
    1a84:	01c2f333          	and	t1,t0,t3
    1a88:	00a00e13          	li	t3,10
    1a8c:	008e1e13          	slli	t3,t3,0x8
    1a90:	01c323b3          	slt	t2,t1,t3
    1a94:	02039863          	bnez	t2,1ac4 <tiend>
    1a98:	60028293          	addi	t0,t0,1536
    1a9c:	00f00e13          	li	t3,15
    1aa0:	00ce1e13          	slli	t3,t3,0xc
    1aa4:	01c2f333          	and	t1,t0,t3
    1aa8:	00600e13          	li	t3,6
    1aac:	00ce1e13          	slli	t3,t3,0xc
    1ab0:	01c323b3          	slt	t2,t1,t3
    1ab4:	00039863          	bnez	t2,1ac4 <tiend>
    1ab8:	00a00e13          	li	t3,10
    1abc:	00ce1e13          	slli	t3,t3,0xc
    1ac0:	01c282b3          	add	t0,t0,t3

00001ac4 <tiend>:
    1ac4:	00552023          	sw	t0,0(a0)
    1ac8:	00008067          	ret

00001acc <hex2asc>:
    1acc:	00f00513          	li	a0,15
    1ad0:	ffc10113          	addi	sp,sp,-4
    1ad4:	00112023          	sw	ra,0(sp)
    1ad8:	018000ef          	jal	1af0 <hexasc>
    1adc:	00b00893          	li	a7,11
    1ae0:	00000073          	ecall
    1ae4:	00012083          	lw	ra,0(sp)
    1ae8:	00410113          	addi	sp,sp,4
    1aec:	00008067          	ret

00001af0 <hexasc>:
    1af0:	00f57513          	andi	a0,a0,15
    1af4:	00900293          	li	t0,9
    1af8:	00a2d463          	bge	t0,a0,1b00 <return>
    1afc:	00750513          	addi	a0,a0,7

00001b00 <return>:
    1b00:	03050513          	addi	a0,a0,48
    1b04:	00008067          	ret

00001b08 <delay>:
    1b08:	02a05063          	blez	a0,1b28 <timeout>
    1b0c:	000045b7          	lui	a1,0x4
    1b10:	a9858593          	addi	a1,a1,-1384 # 3a98 <__global_pointer+0xeff>
    1b14:	fff50513          	addi	a0,a0,-1
    1b18:	fff00613          	li	a2,-1

00001b1c <for>:
    1b1c:	00160613          	addi	a2,a2,1
    1b20:	feb64ee3          	blt	a2,a1,1b1c <for>
    1b24:	fe5ff06f          	j	1b08 <delay>

00001b28 <timeout>:
    1b28:	00008067          	ret

00001b2c <time2string>:
    1b2c:	ffc10113          	addi	sp,sp,-4
    1b30:	00112023          	sw	ra,0(sp)
    1b34:	ffc10113          	addi	sp,sp,-4
    1b38:	00812023          	sw	s0,0(sp)
    1b3c:	ffc10113          	addi	sp,sp,-4
    1b40:	00912023          	sw	s1,0(sp)
    1b44:	000102b7          	lui	t0,0x10
    1b48:	fff28293          	addi	t0,t0,-1 # ffff <__global_pointer+0xd466>
    1b4c:	0055f5b3          	and	a1,a1,t0
    1b50:	00050433          	add	s0,a0,zero
    1b54:	00f5f513          	andi	a0,a1,15
    1b58:	0045d493          	srli	s1,a1,0x4
    1b5c:	00200293          	li	t0,2
    1b60:	f91ff0ef          	jal	1af0 <hexasc>
    1b64:	00a40223          	sb	a0,4(s0)
    1b68:	000402a3          	sb	zero,5(s0)
    1b6c:	00f4f513          	andi	a0,s1,15
    1b70:	0044d493          	srli	s1,s1,0x4
    1b74:	f7dff0ef          	jal	1af0 <hexasc>
    1b78:	00a401a3          	sb	a0,3(s0)
    1b7c:	03a00293          	li	t0,58
    1b80:	00540123          	sb	t0,2(s0)
    1b84:	00f4f513          	andi	a0,s1,15
    1b88:	0044d493          	srli	s1,s1,0x4
    1b8c:	f65ff0ef          	jal	1af0 <hexasc>
    1b90:	00a400a3          	sb	a0,1(s0)
    1b94:	00f4f513          	andi	a0,s1,15
    1b98:	f59ff0ef          	jal	1af0 <hexasc>
    1b9c:	00a40023          	sb	a0,0(s0)
    1ba0:	00012483          	lw	s1,0(sp)
    1ba4:	00410113          	addi	sp,sp,4
    1ba8:	00012403          	lw	s0,0(sp)
    1bac:	00410113          	addi	sp,sp,4
    1bb0:	00012083          	lw	ra,0(sp)
    1bb4:	00410113          	addi	sp,sp,4
    1bb8:	00008067          	ret

00001bbc <main>:
    1bbc:	fe010113          	addi	sp,sp,-32
    1bc0:	00112e23          	sw	ra,28(sp)
    1bc4:	00812c23          	sw	s0,24(sp)
    1bc8:	02010413          	addi	s0,sp,32
    1bcc:	b0001073          	csrw	mcycle,zero
    1bd0:	b0201073          	csrw	minstret,zero
    1bd4:	b0301073          	csrw	mhpmcounter3,zero
    1bd8:	b0401073          	csrw	mhpmcounter4,zero
    1bdc:	b0501073          	csrw	mhpmcounter5,zero
    1be0:	b0601073          	csrw	mhpmcounter6,zero
    1be4:	b0701073          	csrw	mhpmcounter7,zero
    1be8:	b0801073          	csrw	mhpmcounter8,zero
    1bec:	b0901073          	csrw	mhpmcounter9,zero
    1bf0:	00000513          	li	a0,0
    1bf4:	921ff0ef          	jal	1514 <game>
    1bf8:	b00027f3          	csrr	a5,mcycle
    1bfc:	fef42623          	sw	a5,-20(s0)
    1c00:	000027b7          	lui	a5,0x2
    1c04:	48878513          	addi	a0,a5,1160 # 2488 <proceed_val+0xb0>
    1c08:	dc8fe0ef          	jal	1d0 <print>
    1c0c:	fec42783          	lw	a5,-20(s0)
    1c10:	00078513          	mv	a0,a5
    1c14:	e14fe0ef          	jal	228 <print_dec>
    1c18:	000027b7          	lui	a5,0x2
    1c1c:	4a078513          	addi	a0,a5,1184 # 24a0 <proceed_val+0xc8>
    1c20:	db0fe0ef          	jal	1d0 <print>
    1c24:	b02027f3          	csrr	a5,minstret
    1c28:	fef42623          	sw	a5,-20(s0)
    1c2c:	000027b7          	lui	a5,0x2
    1c30:	4a478513          	addi	a0,a5,1188 # 24a4 <proceed_val+0xcc>
    1c34:	d9cfe0ef          	jal	1d0 <print>
    1c38:	fec42783          	lw	a5,-20(s0)
    1c3c:	00078513          	mv	a0,a5
    1c40:	de8fe0ef          	jal	228 <print_dec>
    1c44:	000027b7          	lui	a5,0x2
    1c48:	4a078513          	addi	a0,a5,1184 # 24a0 <proceed_val+0xc8>
    1c4c:	d84fe0ef          	jal	1d0 <print>
    1c50:	b03027f3          	csrr	a5,mhpmcounter3
    1c54:	fef42623          	sw	a5,-20(s0)
    1c58:	000027b7          	lui	a5,0x2
    1c5c:	4d878513          	addi	a0,a5,1240 # 24d8 <proceed_val+0x100>
    1c60:	d70fe0ef          	jal	1d0 <print>
    1c64:	fec42783          	lw	a5,-20(s0)
    1c68:	00078513          	mv	a0,a5
    1c6c:	dbcfe0ef          	jal	228 <print_dec>
    1c70:	000027b7          	lui	a5,0x2
    1c74:	4a078513          	addi	a0,a5,1184 # 24a0 <proceed_val+0xc8>
    1c78:	d58fe0ef          	jal	1d0 <print>
    1c7c:	b04027f3          	csrr	a5,mhpmcounter4
    1c80:	fef42623          	sw	a5,-20(s0)
    1c84:	000027b7          	lui	a5,0x2
    1c88:	51078513          	addi	a0,a5,1296 # 2510 <proceed_val+0x138>
    1c8c:	d44fe0ef          	jal	1d0 <print>
    1c90:	fec42783          	lw	a5,-20(s0)
    1c94:	00078513          	mv	a0,a5
    1c98:	d90fe0ef          	jal	228 <print_dec>
    1c9c:	000027b7          	lui	a5,0x2
    1ca0:	4a078513          	addi	a0,a5,1184 # 24a0 <proceed_val+0xc8>
    1ca4:	d2cfe0ef          	jal	1d0 <print>
    1ca8:	b05027f3          	csrr	a5,mhpmcounter5
    1cac:	fef42623          	sw	a5,-20(s0)
    1cb0:	000027b7          	lui	a5,0x2
    1cb4:	54878513          	addi	a0,a5,1352 # 2548 <proceed_val+0x170>
    1cb8:	d18fe0ef          	jal	1d0 <print>
    1cbc:	fec42783          	lw	a5,-20(s0)
    1cc0:	00078513          	mv	a0,a5
    1cc4:	d64fe0ef          	jal	228 <print_dec>
    1cc8:	000027b7          	lui	a5,0x2
    1ccc:	4a078513          	addi	a0,a5,1184 # 24a0 <proceed_val+0xc8>
    1cd0:	d00fe0ef          	jal	1d0 <print>
    1cd4:	b06027f3          	csrr	a5,mhpmcounter6
    1cd8:	fef42623          	sw	a5,-20(s0)
    1cdc:	000027b7          	lui	a5,0x2
    1ce0:	58078513          	addi	a0,a5,1408 # 2580 <proceed_val+0x1a8>
    1ce4:	cecfe0ef          	jal	1d0 <print>
    1ce8:	fec42783          	lw	a5,-20(s0)
    1cec:	00078513          	mv	a0,a5
    1cf0:	d38fe0ef          	jal	228 <print_dec>
    1cf4:	000027b7          	lui	a5,0x2
    1cf8:	4a078513          	addi	a0,a5,1184 # 24a0 <proceed_val+0xc8>
    1cfc:	cd4fe0ef          	jal	1d0 <print>
    1d00:	b07027f3          	csrr	a5,mhpmcounter7
    1d04:	fef42623          	sw	a5,-20(s0)
    1d08:	000027b7          	lui	a5,0x2
    1d0c:	5c078513          	addi	a0,a5,1472 # 25c0 <proceed_val+0x1e8>
    1d10:	cc0fe0ef          	jal	1d0 <print>
    1d14:	fec42783          	lw	a5,-20(s0)
    1d18:	00078513          	mv	a0,a5
    1d1c:	d0cfe0ef          	jal	228 <print_dec>
    1d20:	000027b7          	lui	a5,0x2
    1d24:	4a078513          	addi	a0,a5,1184 # 24a0 <proceed_val+0xc8>
    1d28:	ca8fe0ef          	jal	1d0 <print>
    1d2c:	b08027f3          	csrr	a5,mhpmcounter8
    1d30:	fef42623          	sw	a5,-20(s0)
    1d34:	000027b7          	lui	a5,0x2
    1d38:	60078513          	addi	a0,a5,1536 # 2600 <proceed_val+0x228>
    1d3c:	c94fe0ef          	jal	1d0 <print>
    1d40:	fec42783          	lw	a5,-20(s0)
    1d44:	00078513          	mv	a0,a5
    1d48:	ce0fe0ef          	jal	228 <print_dec>
    1d4c:	000027b7          	lui	a5,0x2
    1d50:	4a078513          	addi	a0,a5,1184 # 24a0 <proceed_val+0xc8>
    1d54:	c7cfe0ef          	jal	1d0 <print>
    1d58:	b09027f3          	csrr	a5,mhpmcounter9
    1d5c:	fef42623          	sw	a5,-20(s0)
    1d60:	000027b7          	lui	a5,0x2
    1d64:	65c78513          	addi	a0,a5,1628 # 265c <proceed_val+0x284>
    1d68:	c68fe0ef          	jal	1d0 <print>
    1d6c:	fec42783          	lw	a5,-20(s0)
    1d70:	00078513          	mv	a0,a5
    1d74:	cb4fe0ef          	jal	228 <print_dec>
    1d78:	000027b7          	lui	a5,0x2
    1d7c:	4a078513          	addi	a0,a5,1184 # 24a0 <proceed_val+0xc8>
    1d80:	c50fe0ef          	jal	1d0 <print>
    1d84:	00000793          	li	a5,0
    1d88:	00078513          	mv	a0,a5
    1d8c:	01c12083          	lw	ra,28(sp)
    1d90:	01812403          	lw	s0,24(sp)
    1d94:	02010113          	addi	sp,sp,32
    1d98:	00008067          	ret

00001d9c <hex2asc>:
    1d9c:	00f00513          	li	a0,15
    1da0:	ffc10113          	addi	sp,sp,-4
    1da4:	00112023          	sw	ra,0(sp)
    1da8:	018000ef          	jal	1dc0 <hexasc>
    1dac:	00b00893          	li	a7,11
    1db0:	00000073          	ecall
    1db4:	00012083          	lw	ra,0(sp)
    1db8:	00410113          	addi	sp,sp,4
    1dbc:	00008067          	ret

00001dc0 <hexasc>:
    1dc0:	00f57513          	andi	a0,a0,15
    1dc4:	00900293          	li	t0,9
    1dc8:	00a2d463          	bge	t0,a0,1dd0 <return>
    1dcc:	00750513          	addi	a0,a0,7

00001dd0 <return>:
    1dd0:	03050513          	addi	a0,a0,48
    1dd4:	00008067          	ret

00001dd8 <__subdf3>:
    1dd8:	800007b7          	lui	a5,0x80000
    1ddc:	00f6c6b3          	xor	a3,a3,a5

00001de0 <__adddf3>:
    1de0:	ffe007b7          	lui	a5,0xffe00
    1de4:	00159393          	slli	t2,a1,0x1
    1de8:	00169293          	slli	t0,a3,0x1
    1dec:	2cf3fc63          	bgeu	t2,a5,20c4 <infnan>
    1df0:	2cf2f263          	bgeu	t0,a5,20b4 <infnan_B_only>
    1df4:	0153d393          	srli	t2,t2,0x15
    1df8:	0152d293          	srli	t0,t0,0x15
    1dfc:	28038c63          	beqz	t2,2094 <zero_operand>
    1e00:	2a028063          	beqz	t0,20a0 <zero_operand_Y>
    1e04:	40538333          	sub	t1,t2,t0
    1e08:	0253f263          	bgeu	t2,t0,1e2c <__adddf3+0x4c>
    1e0c:	40600333          	neg	t1,t1
    1e10:	00028393          	mv	t2,t0
    1e14:	00c54633          	xor	a2,a0,a2
    1e18:	00d5c6b3          	xor	a3,a1,a3
    1e1c:	00a64533          	xor	a0,a2,a0
    1e20:	00b6c5b3          	xor	a1,a3,a1
    1e24:	00c54633          	xor	a2,a0,a2
    1e28:	00d5c6b3          	xor	a3,a1,a3
    1e2c:	03733293          	sltiu	t0,t1,55
    1e30:	14028663          	beqz	t0,1f7c <exit>
    1e34:	fff7c793          	not	a5,a5
    1e38:	01429293          	slli	t0,t0,0x14
    1e3c:	0055e5b3          	or	a1,a1,t0
    1e40:	0056e6b3          	or	a3,a3,t0
    1e44:	00b29293          	slli	t0,t0,0xb
    1e48:	0055b733          	sltu	a4,a1,t0
    1e4c:	00f5f5b3          	and	a1,a1,a5
    1e50:	00071a63          	bnez	a4,1e64 <__adddf3+0x84>
    1e54:	00153713          	seqz	a4,a0
    1e58:	fff5c593          	not	a1,a1
    1e5c:	40a00533          	neg	a0,a0
    1e60:	00e585b3          	add	a1,a1,a4
    1e64:	0056b733          	sltu	a4,a3,t0
    1e68:	00f6f6b3          	and	a3,a3,a5
    1e6c:	00071a63          	bnez	a4,1e80 <sum>
    1e70:	00163713          	seqz	a4,a2
    1e74:	fff6c693          	not	a3,a3
    1e78:	40c00633          	neg	a2,a2
    1e7c:	00e686b3          	add	a3,a3,a4

00001e80 <sum>:
    1e80:	fff38393          	addi	t2,t2,-1
    1e84:	00000713          	li	a4,0
    1e88:	02000793          	li	a5,32
    1e8c:	00f36a63          	bltu	t1,a5,1ea0 <sum+0x20>
    1e90:	00060713          	mv	a4,a2
    1e94:	00068613          	mv	a2,a3
    1e98:	41f6d693          	srai	a3,a3,0x1f
    1e9c:	fe030313          	addi	t1,t1,-32 # 7fffffe0 <_stack_end+0x7fefd8e8>
    1ea0:	02030863          	beqz	t1,1ed0 <sum+0x50>
    1ea4:	406782b3          	sub	t0,a5,t1
    1ea8:	005717b3          	sll	a5,a4,t0
    1eac:	00675733          	srl	a4,a4,t1
    1eb0:	00f037b3          	snez	a5,a5
    1eb4:	00f76733          	or	a4,a4,a5
    1eb8:	005617b3          	sll	a5,a2,t0
    1ebc:	00f76733          	or	a4,a4,a5
    1ec0:	00665633          	srl	a2,a2,t1
    1ec4:	005697b3          	sll	a5,a3,t0
    1ec8:	00f66633          	or	a2,a2,a5
    1ecc:	4066d6b3          	sra	a3,a3,t1
    1ed0:	00c50533          	add	a0,a0,a2
    1ed4:	00c53633          	sltu	a2,a0,a2
    1ed8:	00c686b3          	add	a3,a3,a2
    1edc:	00d585b3          	add	a1,a1,a3
    1ee0:	01f5d293          	srli	t0,a1,0x1f
    1ee4:	01f29293          	slli	t0,t0,0x1f
    1ee8:	0205d263          	bgez	a1,1f0c <pos_or_zero>
    1eec:	40e00733          	neg	a4,a4
    1ef0:	00173793          	seqz	a5,a4
    1ef4:	fff54513          	not	a0,a0
    1ef8:	00f50533          	add	a0,a0,a5
    1efc:	00153613          	seqz	a2,a0
    1f00:	00f67633          	and	a2,a2,a5
    1f04:	fff5c593          	not	a1,a1
    1f08:	00c585b3          	add	a1,a1,a2

00001f0c <pos_or_zero>:
    1f0c:	001007b7          	lui	a5,0x100
    1f10:	06f5e863          	bltu	a1,a5,1f80 <num_canc>
    1f14:	00179793          	slli	a5,a5,0x1
    1f18:	02f5ea63          	bltu	a1,a5,1f4c <rounding>
    1f1c:	00177793          	andi	a5,a4,1
    1f20:	00175713          	srli	a4,a4,0x1
    1f24:	00f76733          	or	a4,a4,a5
    1f28:	01f51793          	slli	a5,a0,0x1f
    1f2c:	00f76733          	or	a4,a4,a5
    1f30:	00155513          	srli	a0,a0,0x1
    1f34:	01f59793          	slli	a5,a1,0x1f
    1f38:	00f56533          	or	a0,a0,a5
    1f3c:	0015d593          	srli	a1,a1,0x1
    1f40:	00138393          	addi	t2,t2,1
    1f44:	7fe00793          	li	a5,2046
    1f48:	14f3de63          	bge	t2,a5,20a4 <inf>

00001f4c <rounding>:
    1f4c:	800007b7          	lui	a5,0x80000
    1f50:	00f76c63          	bltu	a4,a5,1f68 <exp_sign_exit>
    1f54:	00150513          	addi	a0,a0,1
    1f58:	00153613          	seqz	a2,a0
    1f5c:	00c585b3          	add	a1,a1,a2
    1f60:	00f71463          	bne	a4,a5,1f68 <exp_sign_exit>
    1f64:	ffe57513          	andi	a0,a0,-2

00001f68 <exp_sign_exit>:
    1f68:	00a5e633          	or	a2,a1,a0
    1f6c:	10060c63          	beqz	a2,2084 <signed_zero>
    1f70:	01439393          	slli	t2,t2,0x14
    1f74:	007585b3          	add	a1,a1,t2

00001f78 <sign_and_exit>:
    1f78:	0055e5b3          	or	a1,a1,t0

00001f7c <exit>:
    1f7c:	00008067          	ret

00001f80 <num_canc>:
    1f80:	00159593          	slli	a1,a1,0x1
    1f84:	01f55793          	srli	a5,a0,0x1f
    1f88:	00f5e5b3          	or	a1,a1,a5
    1f8c:	00151513          	slli	a0,a0,0x1
    1f90:	01f75793          	srli	a5,a4,0x1f
    1f94:	00f56533          	or	a0,a0,a5
    1f98:	00171713          	slli	a4,a4,0x1
    1f9c:	00038793          	mv	a5,t2
    1fa0:	fff38393          	addi	t2,t2,-1
    1fa4:	00078663          	beqz	a5,1fb0 <denormal_or_str_canc>
    1fa8:	001007b7          	lui	a5,0x100
    1fac:	faf5f0e3          	bgeu	a1,a5,1f4c <rounding>

00001fb0 <denormal_or_str_canc>:
    1fb0:	00059863          	bnez	a1,1fc0 <denormal_or_str_canc+0x10>
    1fb4:	00050593          	mv	a1,a0
    1fb8:	00000513          	li	a0,0
    1fbc:	02000713          	li	a4,32
    1fc0:	00058693          	mv	a3,a1
    1fc4:	000107b7          	lui	a5,0x10
    1fc8:	00f6f663          	bgeu	a3,a5,1fd4 <denormal_or_str_canc+0x24>
    1fcc:	01069693          	slli	a3,a3,0x10
    1fd0:	01070713          	addi	a4,a4,16
    1fd4:	00479793          	slli	a5,a5,0x4
    1fd8:	00f6f663          	bgeu	a3,a5,1fe4 <denormal_or_str_canc+0x34>
    1fdc:	00c69693          	slli	a3,a3,0xc
    1fe0:	00c70713          	addi	a4,a4,12
    1fe4:	00479793          	slli	a5,a5,0x4
    1fe8:	00f6f663          	bgeu	a3,a5,1ff4 <denormal_or_str_canc+0x44>
    1fec:	00869693          	slli	a3,a3,0x8
    1ff0:	00870713          	addi	a4,a4,8
    1ff4:	00479793          	slli	a5,a5,0x4
    1ff8:	00f6f663          	bgeu	a3,a5,2004 <denormal_or_str_canc+0x54>
    1ffc:	00469693          	slli	a3,a3,0x4
    2000:	00470713          	addi	a4,a4,4
    2004:	00279793          	slli	a5,a5,0x2
    2008:	00f6f663          	bgeu	a3,a5,2014 <denormal_or_str_canc+0x64>
    200c:	00269693          	slli	a3,a3,0x2
    2010:	00270713          	addi	a4,a4,2
    2014:	00179793          	slli	a5,a5,0x1
    2018:	00f6f663          	bgeu	a3,a5,2024 <denormal_or_str_canc+0x74>
    201c:	00169693          	slli	a3,a3,0x1
    2020:	00170713          	addi	a4,a4,1
    2024:	ff570713          	addi	a4,a4,-11
    2028:	04070863          	beqz	a4,2078 <denormal_canc>
    202c:	fe070613          	addi	a2,a4,-32
    2030:	02065263          	bgez	a2,2054 <denormal_or_str_canc+0xa4>
    2034:	00c60613          	addi	a2,a2,12
    2038:	00c05c63          	blez	a2,2050 <denormal_or_str_canc+0xa0>
    203c:	00c00693          	li	a3,12
    2040:	40c68633          	sub	a2,a3,a2
    2044:	00e59533          	sll	a0,a1,a4
    2048:	00c5d5b3          	srl	a1,a1,a2
    204c:	0200006f          	j	206c <denormal_or_str_canc+0xbc>
    2050:	01460613          	addi	a2,a2,20
    2054:	00c595b3          	sll	a1,a1,a2
    2058:	02000693          	li	a3,32
    205c:	40c686b3          	sub	a3,a3,a2
    2060:	00d556b3          	srl	a3,a0,a3
    2064:	00d5e5b3          	or	a1,a1,a3
    2068:	00c51533          	sll	a0,a0,a2
    206c:	40e383b3          	sub	t2,t2,a4
    2070:	0003c463          	bltz	t2,2078 <denormal_canc>
    2074:	ef5ff06f          	j	1f68 <exp_sign_exit>

00002078 <denormal_canc>:
    2078:	00000593          	li	a1,0
    207c:	02c0006f          	j	20a8 <sign_zero_xl>

00002080 <both_denormals>:
    2080:	00d5f5b3          	and	a1,a1,a3

00002084 <signed_zero>:
    2084:	01f5d593          	srli	a1,a1,0x1f
    2088:	01f59593          	slli	a1,a1,0x1f

0000208c <zero_xl>:
    208c:	00000513          	li	a0,0
    2090:	eedff06f          	j	1f7c <exit>

00002094 <zero_operand>:
    2094:	fe0286e3          	beqz	t0,2080 <both_denormals>
    2098:	00068593          	mv	a1,a3
    209c:	00060513          	mv	a0,a2

000020a0 <zero_operand_Y>:
    20a0:	eddff06f          	j	1f7c <exit>

000020a4 <inf>:
    20a4:	7ff005b7          	lui	a1,0x7ff00

000020a8 <sign_zero_xl>:
    20a8:	0055e5b3          	or	a1,a1,t0
    20ac:	00000513          	li	a0,0
    20b0:	ecdff06f          	j	1f7c <exit>

000020b4 <infnan_B_only>:
    20b4:	00068593          	mv	a1,a3
    20b8:	00060513          	mv	a0,a2
    20bc:	00028393          	mv	t2,t0
    20c0:	0100006f          	j	20d0 <infnan_end>

000020c4 <infnan>:
    20c4:	00f2f663          	bgeu	t0,a5,20d0 <infnan_end>
    20c8:	00058693          	mv	a3,a1
    20cc:	00050613          	mv	a2,a0

000020d0 <infnan_end>:
    20d0:	00b39393          	slli	t2,t2,0xb
    20d4:	00a3e3b3          	or	t2,t2,a0
    20d8:	00039863          	bnez	t2,20e8 <produce_nan>
    20dc:	00c51663          	bne	a0,a2,20e8 <produce_nan>
    20e0:	00d59463          	bne	a1,a3,20e8 <produce_nan>
    20e4:	e99ff06f          	j	1f7c <exit>

000020e8 <produce_nan>:
    20e8:	7ff805b7          	lui	a1,0x7ff80
    20ec:	fa1ff06f          	j	208c <zero_xl>

000020f0 <__eqdf2>:
    20f0:	ffe00737          	lui	a4,0xffe00
    20f4:	00159793          	slli	a5,a1,0x1
    20f8:	02e7f663          	bgeu	a5,a4,2124 <nan>
    20fc:	00169793          	slli	a5,a3,0x1
    2100:	02e7f263          	bgeu	a5,a4,2124 <nan>
    2104:	00d5e733          	or	a4,a1,a3
    2108:	00171713          	slli	a4,a4,0x1
    210c:	00a76733          	or	a4,a4,a0
    2110:	00c76733          	or	a4,a4,a2
    2114:	00070863          	beqz	a4,2124 <nan>
    2118:	00c54533          	xor	a0,a0,a2
    211c:	00d5c5b3          	xor	a1,a1,a3
    2120:	00a5e733          	or	a4,a1,a0

00002124 <nan>:
    2124:	00e03533          	snez	a0,a4
    2128:	00008067          	ret

0000212c <__floatsidf>:
    212c:	41f55793          	srai	a5,a0,0x1f
    2130:	00f545b3          	xor	a1,a0,a5
    2134:	40f585b3          	sub	a1,a1,a5
    2138:	02050863          	beqz	a0,2168 <exit>
    213c:	01f79793          	slli	a5,a5,0x1f
    2140:	41d00613          	li	a2,1053
    2144:	0005c863          	bltz	a1,2154 <__floatsidf+0x28>
    2148:	fff60613          	addi	a2,a2,-1
    214c:	00159593          	slli	a1,a1,0x1
    2150:	feb04ce3          	bgtz	a1,2148 <__floatsidf+0x1c>
    2154:	01559513          	slli	a0,a1,0x15
    2158:	00b5d593          	srli	a1,a1,0xb
    215c:	01461613          	slli	a2,a2,0x14
    2160:	00c585b3          	add	a1,a1,a2
    2164:	00f5e5b3          	or	a1,a1,a5

00002168 <exit>:
    2168:	00008067          	ret

0000216c <__muldf3>:
    216c:	00d5c733          	xor	a4,a1,a3
    2170:	800007b7          	lui	a5,0x80000
    2174:	00f772b3          	and	t0,a4,a5
    2178:	7ff00793          	li	a5,2047
    217c:	0145d713          	srli	a4,a1,0x14
    2180:	00f77733          	and	a4,a4,a5
    2184:	0146d313          	srli	t1,a3,0x14
    2188:	00f37333          	and	t1,t1,a5
    218c:	10f70863          	beq	a4,a5,229c <inf_nan>
    2190:	10f30663          	beq	t1,a5,229c <inf_nan>
    2194:	0e070e63          	beqz	a4,2290 <signed_zero>
    2198:	0e030c63          	beqz	t1,2290 <signed_zero>

0000219c <normal_case>:
    219c:	00670733          	add	a4,a4,t1
    21a0:	fff007b7          	lui	a5,0xfff00
    21a4:	fff7c793          	not	a5,a5
    21a8:	00f5f5b3          	and	a1,a1,a5
    21ac:	00f6f6b3          	and	a3,a3,a5
    21b0:	001007b7          	lui	a5,0x100
    21b4:	00f5e5b3          	or	a1,a1,a5
    21b8:	00f6e6b3          	or	a3,a3,a5
    21bc:	02c58333          	mul	t1,a1,a2
    21c0:	02d507b3          	mul	a5,a0,a3
    21c4:	00f30333          	add	t1,t1,a5
    21c8:	00f337b3          	sltu	a5,t1,a5
    21cc:	02c5b3b3          	mulhu	t2,a1,a2
    21d0:	00f383b3          	add	t2,t2,a5
    21d4:	02d537b3          	mulhu	a5,a0,a3
    21d8:	00f383b3          	add	t2,t2,a5
    21dc:	02c507b3          	mul	a5,a0,a2
    21e0:	02c53633          	mulhu	a2,a0,a2
    21e4:	02d58533          	mul	a0,a1,a3
    21e8:	02d5b5b3          	mulhu	a1,a1,a3
    21ec:	00660633          	add	a2,a2,t1
    21f0:	00663333          	sltu	t1,a2,t1
    21f4:	006383b3          	add	t2,t2,t1
    21f8:	00750533          	add	a0,a0,t2
    21fc:	007533b3          	sltu	t2,a0,t2
    2200:	007585b3          	add	a1,a1,t2
    2204:	00f037b3          	snez	a5,a5
    2208:	00f66633          	or	a2,a2,a5
    220c:	20000393          	li	t2,512
    2210:	0275f263          	bgeu	a1,t2,2234 <normal_case+0x98>
    2214:	00159593          	slli	a1,a1,0x1
    2218:	01f55793          	srli	a5,a0,0x1f
    221c:	00f5e5b3          	or	a1,a1,a5
    2220:	00151513          	slli	a0,a0,0x1
    2224:	01f65793          	srli	a5,a2,0x1f
    2228:	00f56533          	or	a0,a0,a5
    222c:	00161613          	slli	a2,a2,0x1
    2230:	fff70713          	addi	a4,a4,-1 # ffdfffff <_stack_end+0xffcfd907>
    2234:	00b59593          	slli	a1,a1,0xb
    2238:	01555793          	srli	a5,a0,0x15
    223c:	00f5e5b3          	or	a1,a1,a5
    2240:	00b51513          	slli	a0,a0,0xb
    2244:	01565793          	srli	a5,a2,0x15
    2248:	00f56533          	or	a0,a0,a5
    224c:	00b61613          	slli	a2,a2,0xb
    2250:	c0170713          	addi	a4,a4,-1023
    2254:	7fe00313          	li	t1,2046
    2258:	02677863          	bgeu	a4,t1,2288 <und_ov_flow>
    225c:	01471713          	slli	a4,a4,0x14
    2260:	00e585b3          	add	a1,a1,a4

00002264 <rounding>:
    2264:	800007b7          	lui	a5,0x80000
    2268:	00f66c63          	bltu	a2,a5,2280 <exit>
    226c:	00150513          	addi	a0,a0,1
    2270:	00153313          	seqz	t1,a0
    2274:	006585b3          	add	a1,a1,t1
    2278:	00f61463          	bne	a2,a5,2280 <exit>
    227c:	ffe57513          	andi	a0,a0,-2

00002280 <exit>:
    2280:	0055e5b3          	or	a1,a1,t0
    2284:	00008067          	ret

00002288 <und_ov_flow>:
    2288:	04e04463          	bgtz	a4,22d0 <inf>
    228c:	0040006f          	j	2290 <signed_zero>

00002290 <signed_zero>:
    2290:	00028593          	mv	a1,t0

00002294 <zero_xl>:
    2294:	00000513          	li	a0,0
    2298:	00008067          	ret

0000229c <inf_nan>:
    229c:	7ff00393          	li	t2,2047
    22a0:	01571793          	slli	a5,a4,0x15
    22a4:	02078c63          	beqz	a5,22dc <nan>
    22a8:	01531793          	slli	a5,t1,0x15
    22ac:	02078863          	beqz	a5,22dc <nan>
    22b0:	00771863          	bne	a4,t2,22c0 <inf_nan+0x24>
    22b4:	00c59793          	slli	a5,a1,0xc
    22b8:	00a7e7b3          	or	a5,a5,a0
    22bc:	02079063          	bnez	a5,22dc <nan>
    22c0:	00731863          	bne	t1,t2,22d0 <inf>
    22c4:	00c69713          	slli	a4,a3,0xc
    22c8:	00c76733          	or	a4,a4,a2
    22cc:	00071863          	bnez	a4,22dc <nan>

000022d0 <inf>:
    22d0:	7ff005b7          	lui	a1,0x7ff00
    22d4:	0055e5b3          	or	a1,a1,t0
    22d8:	fbdff06f          	j	2294 <zero_xl>

000022dc <nan>:
    22dc:	7ff805b7          	lui	a1,0x7ff80
    22e0:	fb5ff06f          	j	2294 <zero_xl>

Disassembly of section .srodata:

000026a8 <WIDTH>:
    26a8:	0140                	.insn	2, 0x0140
	...

000026ac <HEIGHT>:
    26ac:	00f0                	.insn	2, 0x00f0
	...

000026b0 <SIZE>:
    26b0:	2c00                	.insn	2, 0x2c00
    26b2:	0001                	.insn	2, 0x0001

000026b4 <SKY_HEIGHT>:
    26b4:	00c8                	.insn	2, 0x00c8
	...

000026b8 <PLAY_WIDTH>:
    26b8:	0046                	.insn	2, 0x0046
	...

000026bc <BGR_COLOR>:
    26bc:	          	.insn	4, 0x08e01413

000026bd <GROUND_COLOR>:
    26bd:	                	.insn	2, 0xe014

000026be <BIRD_COLOR>:
    26be:	                	.insn	2, 0x08e0

000026bf <PIPE_COLOR>:
    26bf:	                	.insn	2, 0x2c08

000026c0 <PIPE_LIGHT_COLOR>:
    26c0:	                	.insn	2, 0x352c

000026c1 <PIPE_HIGHLIGHT>:
    26c1:	                	.insn	2, 0x7c35

000026c2 <BEAK_COLOR>:
    26c2:	007c                	.insn	2, 0x007c

000026c4 <BIRD_RADIUS>:
    26c4:	00000007          	.insn	4, 0x0007

000026c8 <BIRD_POS_X>:
    26c8:	0040                	.insn	2, 0x0040
	...

000026cc <BIRD_POS_X0>:
    26cc:	0039                	.insn	2, 0x0039
	...

000026d0 <BIRD_POS_X1>:
    26d0:	00000047          	.insn	4, 0x0047

000026d4 <BIRD_START_POS_Y>:
    26d4:	0078                	.insn	2, 0x0078
	...

000026d8 <PIPE_RADIUS>:
    26d8:	0000000f          	fence	unknown,unknown

000026dc <PIPE_HORIZONTAL_SPACE>:
    26dc:	0082                	.insn	2, 0x0082
	...

000026e0 <PIPE_HALF_GAP>:
    26e0:	001e                	.insn	2, 0x001e
	...

000026e4 <PIPE_MIN_HEIGHT>:
    26e4:	0032                	.insn	2, 0x0032
	...

000026e8 <PIPE_SPEED>:
    26e8:	00000003          	lb	zero,0(zero) # 0 <_isr_handler>

000026ec <FALL_SPEED>:
    26ec:	00000003          	lb	zero,0(zero) # 0 <_isr_handler>

000026f0 <JUMP_SPEED>:
    26f0:	00000007          	.insn	4, 0x0007

000026f4 <JUMP_TIME>:
    26f4:	0004                	.insn	2, 0x0004
	...
